(dp0
I0
(dp1
I20
F2.57686552836535
ssI1
(dp2
I29
F1.13921132098621
ssI2
(dp3
I26
F0.951366245531706
sI29
F1.83264303799452
sI6
F0.951366245531706
ssI3
(dp4
I32
F3.1318247112441
sI20
F2.62276937481765
sI26
F3.4231207792731
sI28
F4.73788667198909
sI29
F3.10648269720832
ssI4
(dp5
I40
F1.24708576973933
sI17
F0.827402966014663
sI26
F2.16152721948152
sI29
F2.3608930700131
sI37
F2.51315596270897
ssI5
(dp6
I17
F1.83539965289213
sI26
F0.0851511655220545
sI29
F0.96139937019285
ssI6
(dp7
I2
F0.951366245531706
ssI7
(dp8
I26
F30.9779065131767
sI28
F27.8377559786444
sI18
F1.62733364571067
sI31
F5.72539765160039
ssI8
(dp9
I26
F8.8556227965482
sI29
F8.14918583249644
sI15
F8.45464881465865
ssI9
(dp10
I26
F5.55041180596253
sI28
F5.74820045790492
sI10
F6.70352539340407
ssI10
(dp11
I33
F5.16774091750312
sI34
F2.4455084125225
sI35
F4.43617919635184
sI39
F1.31744391891839
sI9
F6.70352539340407
sI14
F3.20129362158168
sI19
F2.08036224110077
sI20
F7.71793263104817
sI21
F5.25377044095577
sI24
F4.13991889254682
sI26
F2.34012884016252
sI28
F1.71246693397065
ssI11
(dp12
I29
F0.325793927884639
ssI12
(dp13
I26
F0.2713579049982
sI29
F1.17229157865975
sI38
F0.0586429855340314
ssI13
(dp14
I31
F6.43760504337832
ssI14
(dp15
I26
F2.52989648876757
sI34
F1.07711497718376
sI28
F4.78915796529137
sI10
F3.20129362158168
ssI15
(dp16
I8
F8.45464881465865
ssI16
(dp17
I32
F0.519398133020849
sI26
F1.61287587058734
sI39
F0.204478385992668
ssI17
(dp18
I4
F0.827402966014663
sI5
F1.83539965289213
ssI18
(dp19
I7
F1.62733364571067
ssI19
(dp20
I26
F1.41007551065929
sI34
F0.366680314568109
sI28
F3.54227773164879
sI10
F2.08036224110077
ssI20
(dp21
I0
F2.57686552836535
sI26
F6.00851418900465
sI3
F2.62276937481765
sI28
F7.14458851462163
sI10
F7.71793263104817
ssI21
(dp22
I10
F5.25377044095577
ssI22
(dp23
I31
F14.7744081963979
ssI23
(dp24
I26
F4.78922936152459
sI28
F7.21160541013533
ssI24
(dp25
I26
F5.37991393552612
sI28
F5.68255030125975
sI10
F4.13991889254682
ssI25
(dp26
I26
F0.719728483477231
sI29
F1.63517079057654
sI37
F0.935983454590415
ssI26
(dp27
I2
F0.951366245531706
sI3
F3.4231207792731
sI4
F2.16152721948152
sI5
F0.0851511655220545
sI7
F30.9779065131767
sI8
F8.8556227965482
sI9
F5.55041180596253
sI10
F2.34012884016252
sI12
F0.2713579049982
sI14
F2.52989648876757
sI16
F1.61287587058734
sI19
F1.41007551065929
sI20
F6.00851418900465
sI23
F4.78922936152459
sI24
F5.37991393552612
sI25
F0.719728483477231
sI27
F0.107407133392645
sI28
F3.15804073417278
sI29
F0.944468343206374
sI30
F1.38506408676656
sI32
F1.55963394775673
sI33
F3.00603025209055
sI34
F1.47245906075377
sI35
F2.11818231087585
sI36
F1.98059150137607
sI37
F1.51653740453145
sI39
F1.5622819497653
sI40
F2.0357355149515
ssI27
(dp28
I26
F0.107407133392645
sI29
F0.883783794736344
ssI28
(dp29
I32
F1.88532911009081
sI35
F5.19325107609201
sI34
F3.87862930965681
sI3
F4.73788667198909
sI33
F6.16285580833909
sI39
F1.59576807051388
sI9
F5.74820045790492
sI10
F1.71246693397065
sI7
F27.8377559786444
sI14
F4.78915796529137
sI19
F3.54227773164879
sI20
F7.14458851462163
sI23
F7.21160541013533
sI24
F5.68255030125975
sI26
F3.15804073417278
sI29
F2.37977630245223
ssI29
(dp30
I32
F0.619036876649934
sI1
F1.13921132098621
sI2
F1.83264303799452
sI3
F3.10648269720832
sI4
F2.3608930700131
sI37
F2.45826560385305
sI8
F8.14918583249644
sI11
F0.325793927884639
sI12
F1.17229157865975
sI40
F1.69409005265576
sI25
F1.63517079057654
sI36
F2.16985219139704
sI26
F0.944468343206374
sI27
F0.883783794736344
sI28
F2.37977630245223
sI30
F1.20226051634331
sI5
F0.96139937019285
ssI30
(dp31
I26
F1.38506408676656
sI29
F1.20226051634331
ssI31
(dp32
I13
F6.43760504337832
sI22
F14.7744081963979
sI7
F5.72539765160039
ssI32
(dp33
I16
F0.519398133020849
sI26
F1.55963394775673
sI3
F3.1318247112441
sI28
F1.88532911009081
sI29
F0.619036876649934
ssI33
(dp34
I26
F3.00603025209055
sI28
F6.16285580833909
sI10
F5.16774091750312
ssI34
(dp35
I26
F1.47245906075377
sI19
F0.366680314568109
sI28
F3.87862930965681
sI10
F2.4455084125225
sI14
F1.07711497718376
ssI35
(dp36
I26
F2.11818231087585
sI28
F5.19325107609201
sI10
F4.43617919635184
ssI36
(dp37
I26
F1.98059150137607
sI29
F2.16985219139704
ssI37
(dp38
I25
F0.935983454590415
sI26
F1.51653740453145
sI4
F2.51315596270897
sI29
F2.45826560385305
ssI38
(dp39
I12
F0.0586429855340314
ssI39
(dp40
I16
F0.204478385992668
sI26
F1.5622819497653
sI28
F1.59576807051388
sI10
F1.31744391891839
ssI40
(dp41
I26
F2.0357355149515
sI4
F1.24708576973933
sI29
F1.69409005265576
ss.(dp0
I0
S'Malmo, Sweden'
p1
sI1
S'Essen, Germany'
p2
sI2
S'Nuremberg, Germany'
p3
sg2
I1
sI4
S'Berlin, Germany'
p4
sI5
S'Offenbach, Germany'
p5
sI6
S'xWUE, Germany'
p6
sI7
S'New York, NY'
p7
sg3
I2
sS'Copenhagen, Denmark'
p8
I3
sI10
S'Paris, France'
p9
sI11
S'Dortmund, Germany'
p10
sg4
I4
sI13
S'Dallas, TX'
p11
sI14
S'Milan, Italy'
p12
sS'Bonn, Germany'
p13
I15
sI16
S'Antwerp, Belgium'
p14
sg6
I6
sI18
S'Washington, DC'
p15
sI3
g8
sg7
I7
sI21
S'Madrid, Spain'
p16
sS'Cologne, Germany'
p17
I8
sI23
S'Rome, Italy'
p18
sI24
S'Barcelona, Spain'
p19
sI25
S'Stuttgart, Germany'
p20
sI22
S'San Jose, CA'
p21
sS'Oslo, Norway'
p22
I9
sI28
S'London, UnitedKingdom'
p23
sg9
I10
sg18
I23
sI31
S'Chicago, IL'
p24
sI32
S'Amsterdam, Netherlands'
p25
sg10
I11
sI34
S'Zurich, Switzerland'
p26
sI27
S'Mainz, Germany'
p27
sI36
S'Karlsruhe, Germany'
p28
sS'Darmstadt, Germany'
p29
I12
sI38
S'Mannheim, Germany'
p30
sI39
S'Brussels, Belgium'
p31
sI40
S'Hamburg, Germany'
p32
sg11
I13
sg12
I14
sg5
I5
sI29
S'Dusseldorf, Germany'
p33
sg14
I16
sI8
g17
sS'Dresden, Germany'
p34
I17
sg15
I18
sI30
S'Hanover, Germany'
p35
sS'Basel, Switzerland'
p36
I19
sI9
g22
sS'Stockholm, Sweden'
p37
I20
sg16
I21
sg21
I22
sI26
S'Frankfurt, Germany'
p38
sI12
g29
sg1
I0
sg19
I24
sg23
I28
sI35
S'Prague, CzechRepublic'
p39
sg20
I25
sg38
I26
sg30
I38
sg27
I27
sI15
g13
sI37
S'Munich, Germany'
p40
sg33
I29
sg35
I30
sI17
g34
sg24
I31
sg25
I32
sS'Vienna, Austria'
p41
I33
sg26
I34
sg39
I35
sI19
g36
sg28
I36
sg40
I37
sI20
g37
sI33
g41
sg31
I39
sg32
I40
s.(dp0
I32
(lp1
I3561
aI1299
aI702
asI34
(lp2
I1299
asI7
(lp3
I4323
aI701
asI10
(lp4
I3561
aI1299
asI13
(lp5
I4323
asI18
(lp6
I1
aI7911
aI16631
aI6395
asI22
(lp7
I1
aI2914
aI209
asI26
(lp8
I3561
aI1299
aI3549
asI28
(lp9
I1239
aI5400
aI3549
aI702
asI31
(lp10
I1
aI16631
as.