(dp0
I0
(dp1
I18
F0.782996980464399
ssI1
(dp2
I43
F0.230796679506136
ssI2
(dp3
I43
F0.303548497283278
ssI3
(dp4
I34
F1.27987987754245
ssI4
(dp5
I32
F0.359674776933853
ssI5
(dp6
I10
F0.77275760811344
sI27
F10.5991388284493
sI31
F2.73985845598126
ssI6
(dp7
I27
F0.383932481584038
ssI7
(dp8
I34
F0.824637748542658
ssI8
(dp9
I27
F1.93693659855756
ssI9
(dp10
I32
F5.61884494538457
ssI10
(dp11
I5
F0.77275760811344
ssI11
(dp12
I43
F1.57467284056897
ssI12
(dp13
I32
F0.42692206811024
ssI13
(dp14
I34
F2.33602797836195
sI43
F1.18918741582091
ssI14
(dp15
I43
F1.91300161321378
ssI15
(dp16
I43
F2.5513700638689
ssI16
(dp17
I32
F6.91499935344374
ssI17
(dp18
I43
F0.789418423716399
ssI18
(dp19
I0
F0.782996980464399
sI34
F2.95228122867468
sI42
F1.05109173852561
ssI19
(dp20
I34
F2.39388186575196
ssI20
(dp21
I27
F0.410934338251794
ssI21
(dp22
I32
F2.5828562440869
ssI22
(dp23
I43
F0.651636612713129
ssI23
(dp24
I34
F0.536172633029843
ssI24
(dp25
I34
F1.14234917045032
ssI25
(dp26
I43
F60.3095464758688
ssI26
(dp27
I43
F59.74640888143
ssI27
(dp28
I34
F3.34149401363677
sI36
F13.0551821715223
sI5
F10.5991388284493
sI6
F0.383932481584038
sI8
F1.93693659855756
sI20
F0.410934338251794
sI29
F0.960883749376704
ssI28
(dp29
I43
F59.8122862074532
ssI29
(dp30
I27
F0.960883749376704
ssI30
(dp31
I43
F0.285103664740644
ssI31
(dp32
I5
F2.73985845598126
ssI32
(dp33
I35
F3.74195445826965
sI4
F0.359674776933853
sI37
F0.54020828706131
sI9
F5.61884494538457
sI43
F3.72002011770336
sI12
F0.42692206811024
sI16
F6.91499935344374
sI21
F2.5828562440869
ssI33
(dp34
I43
F0.178550628109316
ssI34
(dp35
I3
F1.27987987754245
sI7
F0.824637748542658
sI40
F0.685562165323106
sI43
F3.52506386753417
sI13
F2.33602797836195
sI18
F2.95228122867468
sI19
F2.39388186575196
sI23
F0.536172633029843
sI24
F1.14234917045032
sI27
F3.34149401363677
ssI35
(dp36
I32
F3.74195445826965
ssI36
(dp37
I27
F13.0551821715223
ssI37
(dp38
I32
F0.54020828706131
ssI38
(dp39
I43
F3.00806372808892
ssI39
(dp40
I43
F1.20103333687123
ssI40
(dp41
I34
F0.685562165323106
ssI41
(dp42
I43
F0.0
ssI42
(dp43
I18
F1.05109173852561
ssI43
(dp44
I32
F3.72002011770336
sI33
F0.178550628109316
sI34
F3.52506386753417
sI1
F0.230796679506136
sI38
F3.00806372808892
sI39
F1.20103333687123
sI41
F0.0
sI11
F1.57467284056897
sI13
F1.18918741582091
sI14
F1.91300161321378
sI15
F2.5513700638689
sI17
F0.789418423716399
sI22
F0.651636612713129
sI2
F0.303548497283278
sI25
F60.3095464758688
sI26
F59.74640888143
sI28
F59.8122862074532
sI30
F0.285103664740644
ss.(dp0
I0
S'Launceston, Tazmania'
p1
sI1
S'Penrith, Australia'
p2
sI2
S'Wollongong, Australia'
p3
sI3
S'Albury, Australia'
p4
sI4
S'Southport, Australia'
p5
sI5
S'Perth, Australia'
p6
sg4
I3
sI7
S'Shepparton, Australia'
p7
sI8
S'Mount Gambier, Australia'
p8
sI9
S'Townsville, Australia'
p9
sI10
S'Bunbury, Australia'
p10
sI11
S'Tamworth, Australia'
p11
sI12
S'Maroochydore, Australia'
p12
sg6
I5
sI14
S'Armidale, Australia'
p13
sI15
S'Moree, Australia'
p14
sI16
S'Cairns, Australia'
p15
sI17
S'Bathurst, Australia'
p16
sI18
S'Hobart, Australia'
p17
sI19
S'Mildura, Australia'
p18
sI20
S'Yorketown, Australia'
p19
sI21
S'Rockhampton, Australia'
p20
sI22
S'Newcastle, Australia'
p21
sI23
S'Ballarat, Australia'
p22
sI24
S'Warnambool, Australia'
p23
sI25
S'Los Angeles, CA'
p24
sI26
S'Palo Alto, CA'
p25
sI27
S'Adelaide, Australia'
p26
sI28
S'San Jose, CA'
p27
sI29
S'Port Pirie, Australia'
p28
sI30
S'Gosford, Australia'
p29
sI31
S'Kalgoorlie, Australia'
p30
sI32
S'Brisbane, Australia'
p31
sI33
S'Campbelltown, Australia'
p32
sI34
S'Melbourne, Australia'
p33
sS'Canberra, Australia'
p34
I13
sI36
S'Darwin, Australia'
p35
sI6
S'Victor Harbour, Australia'
p36
sI38
S'Lismore, Australia'
p37
sI39
S'Orange, Australia'
p38
sI40
S'Bendigo, Australia'
p39
sI41
S'Port Maquarie, Australia'
p40
sI42
S'Ulverstone, Tasmania'
p41
sI43
S'Sydney, Australia'
p42
sg19
I20
sg2
I1
sg32
I33
sI13
g34
sg3
I2
sg12
I12
sg14
I15
sg15
I16
sg17
I18
sg18
I19
sg22
I23
sg23
I24
sg25
I26
sg26
I27
sg28
I29
sg30
I31
sg31
I32
sg33
I34
sI35
S'Mackay, Australia'
p43
sI37
S'Toowoomba, Australia'
p44
sg37
I38
sg38
I39
sg41
I42
sg1
I0
sg5
I4
sg36
I6
sg7
I7
sg8
I8
sg9
I9
sg10
I10
sg16
I17
sg20
I21
sg27
I28
sg43
I35
sg44
I37
sg39
I40
sg13
I14
sg11
I11
sg21
I22
sg24
I25
sg29
I30
sg35
I36
sg40
I41
sg42
I43
s.(dp0
I25
(lp1
I1
asI26
(lp2
I577
aI2914
aI4637
asI43
(lp3
I7543
aI3549
aI4637
aI2687
asI28
(lp4
I1239
asI5
(lp5
I7543
as.