(dp0
I0
(dp1
I35
F3.37556761347688
ssI1
(dp2
I43
F13.9413353089448
sI14
F0.207166302464815
sI31
F12.0984029953721
ssI2
(dp3
I40
F4.73788667198909
sI26
F2.62276937481765
sI47
F31.1300774932735
sI7
F1.42488508853435
ssI3
(dp4
I4
F1.41475697801824
sI38
F0.312099846037035
sI9
F0.814102697366192
sI42
F1.03598066929191
sI47
F1.24014386050303
sI51
F0.352818847487156
sI21
F0.22235770619305
sI22
F4.59373352805409
sI30
F19.5320869716731
ssI4
(dp5
I3
F1.41475697801824
sI8
F0.970941851182362
sI9
F0.612916134767723
sI10
F5.17637824065771
sI43
F5.72539765160039
sI44
F0.802792522556184
sI47
F0.327264012993508
sI22
F6.00743024175476
ssI5
(dp6
I43
F3.28282258918395
sI31
F0.135310188927378
ssI6
(dp7
I43
F2.09175251062512
ssI7
(dp8
I2
F1.42488508853435
sI45
F1.81739812413358
sI37
F2.0357355149515
ssI8
(dp9
I33
F0.645327364124454
sI43
F6.21422801564979
sI4
F0.970941851182362
sI9
F1.57866944446859
ssI9
(dp10
I3
F0.814102697366192
sI4
F0.612916134767723
sI8
F1.57866944446859
sI42
F0.359410204531537
sI15
F10.4591971254652
sI17
F19.7878879503739
sI28
F5.00592232248384
sI31
F8.35248438890479
ssI10
(dp11
I28
F0.276384305658571
sI43
F1.31580076013171
sI4
F5.17637824065771
ssI11
(dp12
I24
F10.7861523674496
ssI12
(dp13
I13
F26.1900160757687
ssI13
(dp14
I25
F14.1254042821176
sI12
F26.1900160757687
sI14
F38.9466989302757
sI30
F42.030205069196
sI17
F42.057569081832
ssI14
(dp15
I48
F7.7919920499758
sI1
F0.207166302464815
sI13
F38.9466989302757
sI30
F5.51355908132224
ssI15
(dp16
I34
F0.0922382070286255
sI35
F9.82731733684756
sI9
F10.4591971254652
sI43
F6.43760504337832
sI50
F7.70699136339725
sI20
F5.3378860961663
sI22
F5.75137875158028
sI27
F10.0456672433203
sI31
F3.65508976734151
ssI16
(dp17
I19
F3.20129362158168
sI37
F2.52989648876757
ssI17
(dp18
I36
F0.345751244730034
sI9
F19.7878879503739
sI43
F14.4092582711861
sI13
F42.057569081832
sI49
F19.7751393764736
sI30
F0.437400773037956
ssI18
(dp19
I35
F0.268065406311296
ssI19
(dp20
I40
F1.71246693397065
sI16
F3.20129362158168
sI37
F2.34012884016252
ssI20
(dp21
I48
F0.779297445410034
sI15
F5.3378860961663
ssI21
(dp22
I3
F0.22235770619305
ssI22
(dp23
I3
F4.59373352805409
sI50
F3.23558877686677
sI43
F4.71810812635976
sI4
F6.00743024175476
sI15
F5.75137875158028
ssI23
(dp24
I40
F1.59576807051388
sI45
F0.699743613611879
ssI24
(dp25
I11
F10.7861523674496
sI30
F59.8122862074532
ssI25
(dp26
I13
F14.1254042821176
ssI26
(dp27
I2
F2.62276937481765
ssI27
(dp28
I35
F0.268083922965192
sI15
F10.0456672433203
ssI28
(dp29
I9
F5.00592232248384
sI10
F0.276384305658571
sI43
F1.1760773032622
ssI29
(dp30
I30
F0.124477546789977
ssI30
(dp31
I3
F19.5320869716731
sI43
F14.7744081963979
sI13
F42.030205069196
sI14
F5.51355908132224
sI17
F0.437400773037956
sI35
F2.64832087692555
sI24
F59.8122862074532
sI29
F0.124477546789977
ssI31
(dp32
I9
F8.35248438890479
sI43
F3.28632854191965
sI1
F12.0984029953721
sI5
F0.135310188927378
sI15
F3.65508976734151
ssI32
(dp33
I50
F1.64384925452502
ssI33
(dp34
I8
F0.645327364124454
ssI34
(dp35
I15
F0.0922382070286255
ssI35
(dp36
I0
F3.37556761347688
sI41
F2.70810040111643
sI15
F9.82731733684756
sI49
F20.7415975033769
sI18
F0.268065406311296
sI27
F0.268083922965192
sI30
F2.64832087692555
ssI36
(dp37
I17
F0.345751244730034
ssI37
(dp38
I16
F2.52989648876757
sI19
F2.34012884016252
sI7
F2.0357355149515
ssI38
(dp39
I3
F0.312099846037035
ssI39
(dp40
I40
F2.329340820098
ssI40
(dp41
I19
F1.71246693397065
sI2
F4.73788667198909
sI39
F2.329340820098
sI42
F28.3380319904003
sI23
F1.59576807051388
ssI41
(dp42
I35
F2.70810040111643
ssI42
(dp43
I40
F28.3380319904003
sI9
F0.359410204531537
sI3
F1.03598066929191
sI47
F0.3162210455906
ssI43
(dp44
I1
F13.9413353089448
sI4
F5.72539765160039
sI5
F3.28282258918395
sI6
F2.09175251062512
sI8
F6.21422801564979
sI10
F1.31580076013171
sI46
F2.47832477920296
sI15
F6.43760504337832
sI48
F7.13002155731012
sI17
F14.4092582711861
sI22
F4.71810812635976
sI28
F1.1760773032622
sI30
F14.7744081963979
sI31
F3.28632854191965
ssI44
(dp45
I4
F0.802792522556184
ssI45
(dp46
I7
F1.81739812413358
sI23
F0.699743613611879
ssI46
(dp47
I43
F2.47832477920296
ssI47
(dp48
I2
F31.1300774932735
sI3
F1.24014386050303
sI4
F0.327264012993508
sI42
F0.3162210455906
ssI48
(dp49
I43
F7.13002155731012
sI20
F0.779297445410034
sI14
F7.7919920499758
ssI49
(dp50
I17
F19.7751393764736
sI35
F20.7415975033769
ssI50
(dp51
I32
F1.64384925452502
sI22
F3.23558877686677
sI15
F7.70699136339725
ssI51
(dp52
I3
F0.352818847487156
ss.(dp0
I0
S'Tucson, AZ'
p1
sI1
S'Seattle, WA'
p2
sI2
S'Copenhagen, Denmark'
p3
sI3
S'Relay, MD'
p4
sI4
S'New York, NY'
p5
sI5
S'Lees Summit, MO'
p6
sI6
S'Saint Louis, MO'
p7
sI7
S'Hamburg, Germany'
p8
sI8
S'Springfield, MA'
p9
sI9
S'Pennsauken, NJ'
p10
sI10
S'Indianapolis, IN'
p11
sI11
S'Auckland, NewZealand'
p12
sI12
S'Singapore'
p13
sS'Richardson, TX'
p14
I34
sI14
S'Tacoma, WA'
p15
sI15
S'Dallas, TX'
p16
sI16
S'Milan, Italy'
p17
sI17
S'Stockton, CA'
p18
sI18
S'Burbank, CA'
p19
sI19
S'Paris, France'
p20
sI20
S'Denver, Colorado'
p21
sI21
S'Washington, DC'
p22
sI22
S'Atlanta, GA'
p23
sI23
S'Brussels, Belgium'
p24
sI24
S'Sydney, Australia'
p25
sI25
S'Hong Kong'
p26
sI26
S'Stockholm, Sweden'
p27
sI27
S'Los Angeles, CA'
p28
sI28
S'Roachdale, IN'
p29
sI29
S'Palo Alto, CA'
p30
sI30
S'San Jose, CA'
p31
sI31
S'Kansas City, MO'
p32
sI32
S'Miami, FL'
p33
sI33
S'Boston, MA'
p34
sI34
g14
sI35
S'Anaheim, CA'
p35
sI36
S'Rancho Cordova, CA'
p36
sI37
S'Frankfurt, Germany'
p37
sI38
S'Reston, VA'
p38
sI39
S'Dublin, Ireland'
p39
sI40
S'London, UnitedKingdom'
p40
sI41
S'Phoenix, AZ'
p41
sI42
S'Tuckerton, NJ'
p42
sI43
S'Chicago, IL'
p43
sI44
S'Hartford, CT'
p44
sI45
S'Amsterdam, Netherlands'
p45
sI46
S'Cleveland, OH'
p46
sI47
S'Manasquan, NJ'
p47
sI48
S'Cheyenne, WY'
p48
sI49
S'Pearl Harbor, HI'
p49
sI50
S'Orlando, FL'
p50
sg22
I21
sg23
I22
sg29
I28
sg32
I31
sI13
S'Tokyo, Japan'
p51
sg40
I40
sg47
I47
sS'Ashburn, VA'
p52
I51
sg3
I2
sg4
I3
sg7
I6
sg20
I19
sg13
I12
sg17
I16
sg18
I17
sg27
I26
sg30
I29
sg34
I33
sg35
I35
sg48
I48
sg51
I13
sg36
I36
sg24
I23
sg2
I1
sg6
I5
sg10
I9
sg11
I10
sg12
I11
sg16
I15
sg19
I18
sg21
I20
sI51
g52
sg26
I25
sg31
I30
sg37
I37
sg41
I41
sg38
I38
sg44
I44
sg45
I45
sg39
I39
sg46
I46
sg49
I49
sg1
I0
sg5
I4
sg9
I8
sg28
I27
sg15
I14
sg33
I32
sg42
I42
sg43
I43
sg8
I7
sg50
I50
sg25
I24
s.(dp0
I0
(lp1
I4323
asI1
(lp2
I1
aI3356
aI10910
aI577
aI209
aI852
aI2914
aI3561
aI7018
aI3602
aI701
asI2
(lp3
I3549
asI3
(lp4
I1
aI4637
aI6461
aI4565
aI7911
aI3561
aI7018
aI3320
aI6395
asI4
(lp5
I1
aI5511
aI2828
aI3356
aI10910
aI4513
aI6453
aI6461
aI577
aI16631
aI7132
aI3549
aI2914
aI4323
aI3561
aI7018
aI3602
aI701
aI1299
aI2548
aI3320
aI1785
asI6
(lp6
I701
asI7
(lp7
I3320
asI9
(lp8
I4755
aI10910
aI3602
asI10
(lp9
I1
aI701
asI13
(lp10
I4725
asI14
(lp11
I1
aI10910
aI6453
aI209
aI11608
asI15
(lp12
I3356
aI4637
aI10910
aI6453
aI6467
aI209
aI7132
aI2914
aI4323
aI7911
aI3561
aI7018
aI2548
asI17
(lp13
I5650
aI4755
aI7018
aI701
aI3701
asI18
(lp14
I209
asI19
(lp15
I5511
aI8220
asI21
(lp16
I2828
aI7018
aI701
asI22
(lp17
I1
aI1668
aI10910
aI6467
aI209
aI4323
aI3561
aI7018
aI701
aI1785
asI26
(lp18
I1299
asI27
(lp19
I1
aI1668
aI3356
aI3549
aI2914
aI7018
aI701
asI28
(lp20
I3549
aI3561
aI701
asI29
(lp21
I5511
aI2828
asI30
(lp22
I1
aI3356
aI4637
aI10910
aI4513
aI6461
aI1221
aI2914
aI7911
aI2497
aI7543
aI1785
asI31
(lp23
I7132
aI2914
aI3561
asI32
(lp24
I5511
aI2914
asI35
(lp25
I4637
aI10910
aI6453
aI4323
aI3561
aI701
aI6395
asI37
(lp26
I3549
aI3561
asI40
(lp27
I3356
aI174
aI3257
aI6461
aI702
aI3549
aI2914
aI3561
asI41
(lp28
I7018
aI701
asI43
(lp29
I1
aI1668
aI5650
aI3356
aI10910
aI174
aI577
aI209
aI852
aI3549
aI2914
aI4323
aI3561
aI7018
aI3602
aI701
aI2548
aI6395
asI44
(lp30
I7018
aI701
asI45
(lp31
I5400
aI3356
aI702
aI2914
aI3300
aI3561
asI46
(lp32
I1
aI701
asI48
(lp33
I10910
aI209
aI7018
aI701
asI50
(lp34
I10910
asI51
(lp35
I1
aI1668
aI4637
aI2914
aI2548
as.