(dp0
I0
(dp1
I67
F2.63735820936562
ssI1
(dp2
I35
F5.65399697685604
sI48
F38.8771697463987
sI17
F64.8625377514723
sI54
F1.85297953379378
sI55
F13.9413353089448
sI60
F1.1632071890148
sI61
F40.190875334387
ssI2
(dp3
I69
F2.41111554069603
sI39
F2.45550624108131
sI40
F9.89025021987845
sI44
F1.95164365310374
sI14
F2.52266827341936
sI19
F10.5363852727275
ssI3
(dp4
I55
F0.994849604807387
ssI4
(dp5
I40
F0.332674770228182
sI26
F4.59633532126195
ssI5
(dp6
I8
F0.0710684956979026
sI57
F29.5624838930312
sI42
F20.4155316282769
sI44
F0.57652880820605
sI13
F1.9567630952749
ssI6
(dp7
I47
F2.83310227313517
sI27
F1.88626186156254
sI55
F2.09610867496233
ssI7
(dp8
I8
F0.177171734431241
sI43
F0.17273492226164
ssI8
(dp9
I43
F0.348066943672593
sI68
F3.24743960868072
sI5
F0.0710684956979026
sI7
F0.177171734431241
sI23
F2.53158773254134
sI13
F2.01525033960335
sI49
F27.8377559786444
sI55
F5.72539765160039
sI37
F1.52818775993091
sI69
F1.75053383532763
ssI9
(dp10
I47
F1.31100708475761
ssI10
(dp11
I55
F0.15123430568562
ssI11
(dp12
I39
F0.321483225454254
ssI12
(dp13
I34
F0.381420811600469
sI56
F0.263148241311664
sI42
F0.345502903701343
sI35
F0.261255074734326
sI29
F0.123627574278185
ssI13
(dp14
I8
F2.01525033960335
sI18
F0.59274692421279
sI5
F1.9567630952749
ssI14
(dp15
I2
F2.52266827341936
sI39
F0.0914840145537715
ssI15
(dp16
I35
F0.694034461214314
ssI16
(dp17
I64
F0.125030669155966
ssI17
(dp18
I48
F26.1900160757687
sI1
F64.8625377514723
sI34
F68.2098789197584
sI30
F12.915469710535
ssI18
(dp19
I13
F0.59274692421279
ssI19
(dp20
I32
F1.45877351431596
sI2
F10.5363852727275
sI67
F1.79734274874247
sI35
F11.7890826854885
sI55
F6.43760504337832
sI27
F3.65508976734151
sI63
F7.85325206468035
ssI20
(dp21
I44
F0.282703724413204
ssI21
(dp22
I44
F1.26325771950583
ssI22
(dp23
I49
F1.71246693397065
sI46
F2.34012884016252
ssI23
(dp24
I8
F2.53158773254134
sI39
F1.46697102254423
ssI24
(dp25
I27
F0.487895905031735
ssI25
(dp26
I58
F0.579513867850327
sI31
F0.358150963318345
ssI26
(dp27
I67
F5.6298814446364
sI4
F4.59633532126195
sI39
F4.3323824943394
ssI27
(dp28
I24
F0.487895905031735
sI19
F3.65508976734151
sI6
F1.88626186156254
sI47
F1.32781843775159
ssI28
(dp29
I42
F0.072797856770376
sI35
F0.0405464882837169
ssI29
(dp30
I12
F0.123627574278185
ssI30
(dp31
I48
F14.1254042821176
sI17
F12.915469710535
sI34
F55.8074135130895
ssI31
(dp32
I50
F54.4405827762869
sI25
F0.358150963318345
sI42
F2.43224169177419
sI34
F2.39033852037053
sI58
F0.930875068217323
ssI32
(dp33
I19
F1.45877351431596
ssI33
(dp34
I44
F1.2351689858278
ssI34
(dp35
I65
F59.8122862074532
sI35
F0.124477546789977
sI42
F0.0519303541236295
sI12
F0.381420811600469
sI48
F42.030205069196
sI17
F68.2098789197584
sI51
F7.50910338728108
sI55
F14.7744081963979
sI60
F4.56585112164626
sI61
F43.5230646482607
sI30
F55.8074135130895
sI31
F2.39033852037053
ssI35
(dp36
I1
F5.65399697685604
sI34
F0.124477546789977
sI39
F19.452983796694
sI42
F0.104525369294046
sI12
F0.261255074734326
sI15
F0.694034461214314
sI19
F11.7890826854885
sI58
F3.43877328018719
sI28
F0.0405464882837169
sI63
F4.78644326108868
ssI36
(dp37
I55
F1.03360021788674
ssI37
(dp38
I8
F1.52818775993091
sI64
F5.8162753246858
ssI38
(dp39
I60
F0.840684393371876
ssI39
(dp40
I2
F2.45550624108131
sI35
F19.452983796694
sI69
F0.147031412914132
sI11
F0.321483225454254
sI14
F0.0914840145537715
sI23
F1.46697102254423
sI26
F4.3323824943394
sI59
F0.0421768352977771
ssI40
(dp41
I2
F9.89025021987845
sI4
F0.332674770228182
ssI41
(dp42
I57
F7.26851105212116
sI49
F6.31536032045267
ssI42
(dp43
I34
F0.0519303541236295
sI35
F0.104525369294046
sI5
F20.4155316282769
sI12
F0.345502903701343
sI28
F0.072797856770376
sI31
F2.43224169177419
ssI43
(dp44
I8
F0.348066943672593
sI7
F0.17273492226164
ssI44
(dp45
I33
F1.2351689858278
sI2
F1.95164365310374
sI20
F0.282703724413204
sI21
F1.26325771950583
sI5
F0.57652880820605
ssI45
(dp46
I64
F0.77498250927329
ssI46
(dp47
I57
F1.55963394775673
sI22
F2.34012884016252
ssI47
(dp48
I9
F1.31100708475761
sI27
F1.32781843775159
sI6
F2.83310227313517
ssI48
(dp49
I1
F38.8771697463987
sI34
F42.030205069196
sI65
F38.6332013684815
sI17
F26.1900160757687
sI50
F10.1835162102325
sI30
F14.1254042821176
sI61
F1.82749056003722
sI62
F5.82920134598124
ssI49
(dp50
I8
F27.8377559786444
sI57
F1.88532911009081
sI22
F1.71246693397065
sI41
F6.31536032045267
ssI50
(dp51
I48
F10.1835162102325
sI31
F54.4405827762869
ssI51
(dp52
I34
F7.50910338728108
sI52
F0.0837633620878941
sI55
F7.31964781963753
ssI52
(dp53
I51
F0.0837633620878941
ssI53
(dp54
I68
F1.00169656442533
ssI54
(dp55
I1
F1.85297953379378
sI60
F2.32778100600558
ssI55
(dp56
I64
F1.02866164399867
sI51
F7.31964781963753
sI66
F1.62814245299138
sI3
F0.994849604807387
sI68
F2.47832477920296
sI69
F4.56760563530978
sI6
F2.09610867496233
sI1
F13.9413353089448
sI8
F5.72539765160039
sI10
F0.15123430568562
sI34
F14.7744081963979
sI19
F6.43760504337832
sI36
F1.03360021788674
ssI56
(dp57
I12
F0.263148241311664
ssI57
(dp58
I49
F1.88532911009081
sI5
F29.5624838930312
sI46
F1.55963394775673
sI41
F7.26851105212116
ssI58
(dp59
I25
F0.579513867850327
sI67
F10.4452660618792
sI35
F3.43877328018719
sI31
F0.930875068217323
ssI59
(dp60
I39
F0.0421768352977771
ssI60
(dp61
I1
F1.1632071890148
sI34
F4.56585112164626
sI54
F2.32778100600558
sI38
F0.840684393371876
ssI61
(dp62
I48
F1.82749056003722
sI1
F40.190875334387
sI34
F43.5230646482607
ssI62
(dp63
I48
F5.82920134598124
ssI63
(dp64
I35
F4.78644326108868
sI19
F7.85325206468035
ssI64
(dp65
I16
F0.125030669155966
sI45
F0.77498250927329
sI37
F5.8162753246858
sI55
F1.02866164399867
ssI65
(dp66
I48
F38.6332013684815
sI34
F59.8122862074532
ssI66
(dp67
I55
F1.62814245299138
ssI67
(dp68
I0
F2.63735820936562
sI26
F5.6298814446364
sI19
F1.79734274874247
sI58
F10.4452660618792
ssI68
(dp69
I8
F3.24743960868072
sI53
F1.00169656442533
sI55
F2.47832477920296
ssI69
(dp70
I8
F1.75053383532763
sI2
F2.41111554069603
sI39
F0.147031412914132
sI55
F4.56760563530978
ss.(dp0
I0
S'New Orleans, LA'
p1
sI1
S'Seattle, WA'
p2
sI2
S'Sterling, VA'
p3
sI3
S'Champaign, IL'
p4
sI4
S'Boca Raton, FL'
p5
sI5
S'Newark, NJ'
p6
sI6
S'St Louis, MO'
p7
sI7
S'Westbury, NY'
p8
sI8
S'New York, NY'
p9
sI9
S'Sioux Falls, SD'
p10
sI10
S'Downers Grove, IL'
p11
sI11
S'Baltimore, MD'
p12
sI12
S'San Francisco, CA'
p13
sI13
S'Rochester, NY'
p14
sI14
S'Alexandria, VA'
p15
sI15
S'Sacramento, CA'
p16
sI16
S'Burlington, MI'
p17
sI17
S'Singapore'
p18
sI18
S'Syracuse, NY'
p19
sI19
S'Dallas, TX'
p20
sI20
S'Princeton, NJ'
p21
sI21
S'Mainesburg, PA'
p22
sI22
S'Paris, France'
p23
sI23
S'Pittsburgh, PA'
p24
sg10
I9
sI25
S'Irvine, CA'
p25
sI26
S'Atlanta, GA'
p26
sI27
S'Kansas City, MO'
p27
sI28
S'Mountain View, CA'
p28
sI29
S'Oakland, CA'
p29
sI30
S'Hong Kong'
p30
sI31
S'Los Angeles, CA'
p31
sI32
S'Austin, TX'
p32
sI33
S'State College, PA'
p33
sI34
S'San Jose, CA'
p34
sI35
S'Palo Alto, CA'
p35
sg15
I14
sI37
S'Boston, MA'
p36
sI38
S'Eugene, OR'
p37
sI39
S'McLean, VA'
p38
sI40
S'Miami, FL'
p39
sI41
S'Madrid, Spain'
p40
sI42
S'Milpitas, CA'
p41
sI43
S'Smithtown, NY'
p42
sI44
S'Philadelphia, PA'
p43
sI45
S'Livonia, MI'
p44
sI46
S'Frankfurt, Germany'
p45
sI47
S'Omaha, NE'
p46
sI48
S'Tokyo, Japan'
p47
sI49
S'London, UnitedKingdom'
p48
sI50
S'Taipei, Taiwan'
p49
sg14
I13
sI52
S'Englewood, CO'
p50
sI53
S'Columbus, OH'
p51
sg26
I26
sI55
S'Chicago, IL'
p52
sI56
S'San Ramon, CA'
p53
sI57
S'Amsterdam, Netherlands'
p54
sI58
S'San Diego, CA'
p55
sI59
S'Vienna, VA'
p56
sI60
S'Portland, OR'
p57
sI61
S'Osaka, Japan'
p58
sI62
S'Seoul, SouthKorea'
p59
sI63
S'Orem, UT'
p60
sI64
S'Springfield, MI'
p61
sI65
S'Sydney, Australia'
p62
sI66
S'Ann Arbor, MI'
p63
sI67
S'Houston, TX'
p64
sI68
S'Cleveland, OH'
p65
sI69
S'Ashburn, VA'
p66
sg27
I27
sg48
I49
sg49
I50
sS'Spokane, WA'
p67
I54
sg64
I67
sg66
I69
sg3
I2
sg6
I5
sI24
S'Topeka, KS'
p68
sg8
I7
sg23
I22
sg18
I17
sg19
I18
sg53
I56
sg35
I35
sg36
I37
sg38
I39
sI36
S'Peoria, IL'
p69
sg47
I48
sg33
I33
sg42
I43
sI54
g67
sg46
I47
sg60
I63
sg2
I1
sg4
I3
sg5
I4
sg16
I15
sg17
I16
sg55
I58
sg20
I19
sg22
I21
sg24
I23
sI51
S'Denver, CO'
p70
sg28
I28
sg30
I30
sg69
I36
sg34
I34
sg13
I12
sg40
I41
sg41
I42
sg43
I44
sg45
I46
sg25
I25
sg51
I53
sg54
I57
sg57
I60
sg61
I64
sg63
I66
sg65
I68
sg21
I20
sg7
I6
sg9
I8
sg11
I10
sg12
I11
sg58
I61
sg29
I29
sg31
I31
sg32
I32
sg37
I38
sg39
I40
sg44
I45
sg1
I0
sg68
I24
sg70
I51
sg50
I52
sg52
I55
sg56
I59
sg59
I62
sg62
I65
s.(dp0
I1
(lp1
I1
aI6539
aI10910
aI6453
aI701
aI1239
aI11608
aI3549
aI101
aI3561
aI7018
aI6461
asI2
(lp2
I2548
aI3320
asI5
(lp3
I209
asI6
(lp4
I701
asI8
(lp5
I1
aI6539
aI6939
aI3356
aI10910
aI2497
aI1239
aI7911
aI3561
aI6461
aI1299
aI3320
asI12
(lp6
I10910
aI16631
asI17
(lp7
I5400
asI19
(lp8
I1
aI3356
aI10910
aI174
aI701
aI209
aI1239
aI3561
aI7018
aI6461
aI1299
asI22
(lp9
I1299
asI26
(lp10
I10910
asI27
(lp11
I1239
asI31
(lp12
I1
aI3356
aI10910
aI6453
aI16631
aI1239
aI7018
asI34
(lp13
I2828
aI5400
aI3356
aI174
aI3257
aI6467
aI1239
aI3300
asI35
(lp14
I1
aI5511
aI5650
aI6939
aI4637
aI10910
aI6453
aI2497
aI1221
aI16631
aI1784
aI209
aI3549
aI4323
aI3561
aI12050
aI6461
asI37
(lp15
I10910
aI174
asI39
(lp16
I2828
aI5650
aI5400
aI6939
aI7018
asI40
(lp17
I10910
aI16631
aI209
aI1239
asI42
(lp18
I10910
asI44
(lp19
I10910
asI46
(lp20
I3356
aI8220
aI1299
asI48
(lp21
I7176
aI10910
asI49
(lp22
I5400
aI3356
aI1239
aI3549
aI1299
asI51
(lp23
I10910
asI55
(lp24
I1
aI6539
aI2828
aI5650
aI5400
aI6939
aI3356
aI10910
aI4513
aI174
aI6453
aI701
aI16631
aI209
aI4565
aI1239
aI3549
aI4323
aI7911
aI7018
aI12050
aI6461
aI2548
aI6395
asI57
(lp25
I1239
aI3549
asI58
(lp26
I10910
asI67
(lp27
I10910
asI69
(lp28
I1
aI5511
aI4637
aI6453
aI1239
aI3549
as.