(dp0
I2
(dp1
I49
F3.37556761347688
ssI4
(dp2
I64
F13.9413353089448
sI24
F0.207166302464815
sI42
F12.0984029953721
ssI5
(dp3
I56
F4.73788667198909
sI74
F31.1300774932735
sI36
F2.62276937481765
sI13
F1.42488508853435
ssI7
(dp4
I32
F4.59373352805409
sI41
F19.5320869716731
sI74
F1.24014386050303
sI78
F0.352818847487156
sI16
F0.814102697366192
sI54
F0.312099846037035
sI10
F1.41475697801824
sI62
F1.03598066929191
sI31
F0.22235770619305
ssI10
(dp5
I32
F6.00743024175476
sI64
F5.72539765160039
sI65
F0.802792522556184
sI74
F0.327264012993508
sI7
F1.41475697801824
sI15
F0.970941851182362
sI16
F0.612916134767723
sI17
F5.17637824065771
ssI11
(dp6
I64
F3.28282258918395
sI42
F0.135310188927378
ssI12
(dp7
I64
F2.09175251062512
ssI13
(dp8
I66
F1.81739812413358
sI52
F2.0357355149515
sI5
F1.42488508853435
ssI15
(dp9
I64
F6.21422801564979
sI16
F1.57866944446859
sI10
F0.970941851182362
sI47
F0.645327364124454
ssI16
(dp10
I38
F5.00592232248384
sI7
F0.814102697366192
sI42
F8.35248438890479
sI15
F1.57866944446859
sI25
F10.4591971254652
sI27
F19.7878879503739
sI10
F0.612916134767723
sI62
F0.359410204531537
ssI17
(dp11
I64
F1.31580076013171
sI10
F5.17637824065771
sI38
F0.276384305658571
ssI21
(dp12
I34
F10.7861523674496
ssI22
(dp13
I23
F26.1900160757687
ssI23
(dp14
I27
F42.057569081832
sI41
F42.030205069196
sI35
F14.1254042821176
sI22
F26.1900160757687
sI24
F38.9466989302757
ssI24
(dp15
I41
F5.51355908132224
sI75
F7.7919920499758
sI4
F0.207166302464815
sI23
F38.9466989302757
ssI25
(dp16
I32
F5.75137875158028
sI64
F6.43760504337832
sI37
F10.0456672433203
sI48
F0.0922382070286255
sI42
F3.65508976734151
sI77
F7.70699136339725
sI16
F10.4591971254652
sI49
F9.82731733684756
sI30
F5.3378860961663
ssI26
(dp17
I52
F2.52989648876757
sI29
F3.20129362158168
ssI27
(dp18
I64
F14.4092582711861
sI41
F0.437400773037956
sI76
F19.7751393764736
sI16
F19.7878879503739
sI50
F0.345751244730034
sI23
F42.057569081832
ssI28
(dp19
I49
F0.268065406311296
ssI29
(dp20
I56
F1.71246693397065
sI26
F3.20129362158168
sI52
F2.34012884016252
ssI30
(dp21
I25
F5.3378860961663
sI75
F0.779297445410034
ssI31
(dp22
I7
F0.22235770619305
ssI32
(dp23
I64
F4.71810812635976
sI25
F5.75137875158028
sI10
F6.00743024175476
sI77
F3.23558877686677
sI7
F4.59373352805409
ssI33
(dp24
I56
F1.59576807051388
sI66
F0.699743613611879
ssI34
(dp25
I41
F59.8122862074532
sI21
F10.7861523674496
ssI35
(dp26
I23
F14.1254042821176
ssI36
(dp27
I5
F2.62276937481765
ssI37
(dp28
I49
F0.268083922965192
sI25
F10.0456672433203
ssI38
(dp29
I64
F1.1760773032622
sI17
F0.276384305658571
sI16
F5.00592232248384
ssI39
(dp30
I41
F0.124477546789977
ssI41
(dp31
I64
F14.7744081963979
sI34
F59.8122862074532
sI7
F19.5320869716731
sI39
F0.124477546789977
sI49
F2.64832087692555
sI23
F42.030205069196
sI24
F5.51355908132224
sI27
F0.437400773037956
ssI42
(dp32
I64
F3.28632854191965
sI25
F3.65508976734151
sI11
F0.135310188927378
sI4
F12.0984029953721
sI16
F8.35248438890479
ssI43
(dp33
I77
F1.64384925452502
ssI47
(dp34
I15
F0.645327364124454
ssI48
(dp35
I25
F0.0922382070286255
ssI49
(dp36
I2
F3.37556761347688
sI37
F0.268083922965192
sI41
F2.64832087692555
sI76
F20.7415975033769
sI25
F9.82731733684756
sI28
F0.268065406311296
sI61
F2.70810040111643
ssI50
(dp37
I27
F0.345751244730034
ssI52
(dp38
I26
F2.52989648876757
sI13
F2.0357355149515
sI29
F2.34012884016252
ssI54
(dp39
I7
F0.312099846037035
ssI55
(dp40
I56
F2.329340820098
ssI56
(dp41
I33
F1.59576807051388
sI29
F1.71246693397065
sI5
F4.73788667198909
sI62
F28.3380319904003
sI55
F2.329340820098
ssI61
(dp42
I49
F2.70810040111643
ssI62
(dp43
I56
F28.3380319904003
sI16
F0.359410204531537
sI74
F0.3162210455906
sI7
F1.03598066929191
ssI64
(dp44
I32
F4.71810812635976
sI11
F3.28282258918395
sI4
F13.9413353089448
sI38
F1.1760773032622
sI73
F2.47832477920296
sI42
F3.28632854191965
sI75
F7.13002155731012
sI12
F2.09175251062512
sI15
F6.21422801564979
sI17
F1.31580076013171
sI41
F14.7744081963979
sI25
F6.43760504337832
sI27
F14.4092582711861
sI10
F5.72539765160039
ssI65
(dp45
I10
F0.802792522556184
ssI66
(dp46
I33
F0.699743613611879
sI13
F1.81739812413358
ssI73
(dp47
I64
F2.47832477920296
ssI74
(dp48
I10
F0.327264012993508
sI5
F31.1300774932735
sI62
F0.3162210455906
sI7
F1.24014386050303
ssI75
(dp49
I64
F7.13002155731012
sI24
F7.7919920499758
sI30
F0.779297445410034
ssI76
(dp50
I49
F20.7415975033769
sI27
F19.7751393764736
ssI77
(dp51
I32
F3.23558877686677
sI25
F7.70699136339725
sI43
F1.64384925452502
ssI78
(dp52
I7
F0.352818847487156
ss.(dp0
I0
S'Carrollton, TX'
p1
sI1
S'Sunnyvale, CA'
p2
sI2
S'Tucson, AZ'
p3
sI3
S'Milwaukee, WI'
p4
sI4
S'Seattle, WA'
p5
sg4
I3
sI6
S'Berlin, Germany'
p6
sI7
S'Relay, MD'
p7
sI8
S'Newark, NJ'
p8
sI9
S'St Louis, MO'
p9
sI10
S'New York, NY'
p10
sI11
S'Lees Summit, MO'
p11
sI12
S'Saint Louis, MO'
p12
sI13
S'Hamburg, Germany'
p13
sI14
S'Oslo, Norway'
p14
sI15
S'Springfield, MA'
p15
sI16
S'Pennsauken, NJ'
p16
sI17
S'Indianapolis, IN'
p17
sI18
S'Cambridge, MA'
p18
sI19
S'Minneapolis, MN'
p19
sI20
S'Tampa, FL'
p20
sI21
S'Auckland, NewZealand'
p21
sI22
S'Singapore'
p22
sI23
S'Tokyo, Japan'
p23
sI24
S'Tacoma, WA'
p24
sI25
S'Dallas, TX'
p25
sI26
S'Milan, Italy'
p26
sI27
S'Stockton, CA'
p27
sI28
S'Burbank, CA'
p28
sI29
S'Paris, France'
p29
sI30
S'Denver, Colorado'
p30
sI5
S'Copenhagen, Denmark'
p31
sI32
S'Atlanta, GA'
p32
sI33
S'Brussels, Belgium'
p33
sI34
S'Sydney, Australia'
p34
sI35
S'Hong Kong'
p35
sI36
S'Stockholm, Sweden'
p36
sI37
S'Los Angeles, CA'
p37
sI38
S'Roachdale, IN'
p38
sI39
S'Palo Alto, CA'
p39
sI40
S'Budapest, Hungary'
p40
sI41
S'San Jose, CA'
p41
sI42
S'Kansas City, MO'
p42
sI43
S'Miami, FL'
p43
sI44
S'San Francisco, CA'
p44
sI45
S'Oak Brook, IL'
p45
sI46
S'Moscow, Russia'
p46
sI47
S'Boston, MA'
p47
sI48
S'Richardson, TX'
p48
sI49
S'Anaheim, CA'
p49
sI50
S'Rancho Cordova, CA'
p50
sS'Washington, DC'
p51
I31
sI52
S'Frankfurt, Germany'
p52
sI53
S'Baltimore, MD'
p53
sg32
I32
sI55
S'Dublin, Ireland'
p54
sI56
S'London, UnitedKingdom'
p55
sI57
S'Geneva, Switzerland'
p56
sI58
S'Antwerp, Netherlands'
p57
sI59
S'Zurich, Switzerland'
p58
sI60
S'Denver, CO'
p59
sI61
S'Phoenix, AZ'
p60
sI62
S'Tuckerton, NJ'
p61
sg38
I38
sI64
S'Chicago, IL'
p62
sI65
S'Hartford, CT'
p63
sI66
S'Amsterdam, Netherlands'
p64
sI67
S'Sacramento, CA'
p65
sI68
S'Vienna, Austria'
p66
sI69
S'Amstelveen, Netherlands'
p67
sI70
S'Basel, Switzerland'
p68
sI71
S'Prague, CzechRepublic'
p69
sI72
S'Santa Clara, CA'
p70
sg42
I42
sI74
S'Manasquan, NJ'
p71
sI75
S'Cheyenne, WY'
p72
sI76
S'Pearl Harbor, HI'
p73
sI77
S'Orlando, FL'
p74
sI78
S'Ashburn, VA'
p75
sg48
I48
sg67
I69
sI54
S'Reston, VA'
p76
sg66
I68
sg70
I72
sg71
I74
sg75
I78
sg31
I5
sg7
I7
sg8
I8
sg12
I12
sg29
I29
sg22
I22
sg26
I26
sg27
I27
sg68
I70
sI31
g51
sg36
I36
sg39
I39
sg47
I47
sg49
I49
sg72
I75
sg23
I23
sg56
I57
sg50
I50
sS'Dusseldorf, Germany'
p77
I63
sg58
I59
sg33
I33
sg55
I56
sg1
I0
sg2
I1
sg5
I4
sg11
I11
sg16
I16
sg17
I17
sg65
I67
sg21
I21
sg25
I25
sg28
I28
sg30
I30
sI51
S'Barcelona, Spain'
p78
sg35
I35
sg40
I40
sg41
I41
sg44
I44
sg45
I45
sg46
I46
sg52
I52
sg60
I61
sg76
I54
sg63
I65
sg64
I66
sg69
I71
sg54
I55
sI63
g77
sS'Cleveland, OH'
p79
I73
sg73
I76
sg3
I2
sg6
I6
sg9
I9
sg10
I10
sg14
I14
sg15
I15
sg53
I53
sg18
I18
sg19
I19
sg20
I20
sI73
g79
sg37
I37
sg24
I24
sg43
I43
sg78
I51
sg59
I60
sg61
I62
sg62
I64
sg57
I58
sg13
I13
sg74
I77
sg34
I34
s.(dp0
I2
(lp1
I4323
asI3
(lp2
I4323
asI4
(lp3
I1
aI3356
aI10910
aI577
aI209
aI852
aI2914
aI3561
aI7018
aI3602
aI701
asI5
(lp4
I3549
asI7
(lp5
I1
aI4637
aI6461
aI4565
aI7911
aI3561
aI7018
aI3320
aI6395
asI8
(lp6
I209
asI9
(lp7
I7018
asI10
(lp8
I1
aI5511
aI2828
aI3356
aI10910
aI4513
aI6453
aI6461
aI577
aI16631
aI7132
aI3549
aI2914
aI4323
aI3561
aI7018
aI3602
aI701
aI1299
aI2548
aI3320
aI1785
asI12
(lp9
I701
asI13
(lp10
I3320
asI16
(lp11
I4755
aI10910
aI3602
asI17
(lp12
I1
aI701
asI19
(lp13
I701
asI23
(lp14
I4725
asI24
(lp15
I1
aI10910
aI6453
aI209
aI11608
asI25
(lp16
I3356
aI4637
aI10910
aI6453
aI6467
aI209
aI7132
aI2914
aI4323
aI7911
aI3561
aI7018
aI2548
asI27
(lp17
I5650
aI4755
aI7018
aI701
aI3701
asI28
(lp18
I209
asI29
(lp19
I5511
aI8220
asI31
(lp20
I2828
aI7018
aI701
asI32
(lp21
I1
aI1668
aI10910
aI6467
aI209
aI4323
aI3561
aI7018
aI701
aI1785
asI36
(lp22
I1299
asI37
(lp23
I1
aI1668
aI3356
aI3549
aI2914
aI7018
aI701
asI38
(lp24
I3549
aI3561
aI701
asI39
(lp25
I5511
aI2828
asI41
(lp26
I1
aI3356
aI4637
aI10910
aI4513
aI6461
aI1221
aI2914
aI7911
aI2497
aI7543
aI1785
asI42
(lp27
I7132
aI2914
aI3561
asI43
(lp28
I5511
aI2914
asI49
(lp29
I4637
aI10910
aI6453
aI4323
aI3561
aI701
aI6395
asI52
(lp30
I3549
aI3561
asI53
(lp31
I7018
asI56
(lp32
I3356
aI174
aI3257
aI6461
aI702
aI3549
aI2914
aI3561
asI60
(lp33
I209
aI701
asI61
(lp34
I7018
aI701
asI64
(lp35
I1
aI1668
aI5650
aI3356
aI10910
aI174
aI577
aI209
aI852
aI3549
aI2914
aI4323
aI3561
aI7018
aI3602
aI701
aI2548
aI6395
asI65
(lp36
I7018
aI701
asI66
(lp37
I5400
aI3356
aI702
aI2914
aI3300
aI3561
asI67
(lp38
I701
asI73
(lp39
I1
aI701
asI75
(lp40
I10910
aI209
aI7018
aI701
asI77
(lp41
I10910
asI78
(lp42
I1
aI1668
aI4637
aI2914
aI2548
as.