(dp0
I0
(dp1
I111
I1
ssI1
(dp2
I91
I1
ssI2
(dp3
I76
I1
ssI3
(dp4
I140
I1
ssI6
(dp5
I140
I1
ssI8
(dp6
I113
I1
ssI9
(dp7
I126
I1
ssI10
(dp8
I113
I1
ssI12
(dp9
I113
I1
ssI13
(dp10
I134
I1
sI113
I1
sI137
I1
sI107
I1
sI14
I1
sI111
I1
sI48
I1
sI145
I1
sI114
I1
sI116
I1
sI54
I1
sI26
I1
sI91
I1
sI125
I1
sI30
I1
sI31
I1
ssI14
(dp11
I132
I1
sI44
I1
sI106
I1
sI107
I1
sI76
I1
sI13
I1
sI147
I1
sI118
I1
sI59
I1
sI126
I1
ssI15
(dp12
I57
I1
sI111
I1
ssI16
(dp13
I122
I1
sI147
I1
ssI17
(dp14
I91
I1
ssI18
(dp15
I113
I1
ssI20
(dp16
I85
I1
ssI21
(dp17
I66
I1
ssI26
(dp18
I13
I1
ssI27
(dp19
I119
I1
ssI28
(dp20
I140
I1
ssI29
(dp21
I128
I1
sI135
I1
sI76
I1
sI47
I1
ssI30
(dp22
I13
I1
ssI31
(dp23
I13
I1
ssI32
(dp24
I128
I1
sI76
I1
ssI33
(dp25
I119
I1
ssI35
(dp26
I113
I1
ssI37
(dp27
I76
I1
ssI39
(dp28
I124
I1
sI85
I1
ssI40
(dp29
I113
I1
ssI41
(dp30
I113
I1
ssI44
(dp31
I14
I1
ssI46
(dp32
I85
I1
ssI47
(dp33
I29
I1
ssI48
(dp34
I13
I1
ssI49
(dp35
I91
I1
ssI50
(dp36
I126
I1
ssI51
(dp37
I147
I1
ssI52
(dp38
I111
I1
ssI53
(dp39
I64
I1
sI140
I1
ssI54
(dp40
I13
I1
ssI55
(dp41
I113
I1
ssI56
(dp42
I76
I1
ssI57
(dp43
I120
I1
sI111
I1
sI15
I1
ssI58
(dp44
I126
I1
ssI59
(dp45
I14
I1
ssI61
(dp46
I111
I1
ssI64
(dp47
I98
I1
sI102
I1
sI104
I1
sI105
I1
sI140
I1
sI66
I1
sI111
I1
sI53
I1
sI91
I1
ssI65
(dp48
I136
I1
ssI66
(dp49
I64
I1
sI100
I1
sI140
I1
sI111
I1
sI21
I1
sI119
I1
sI85
I1
ssI68
(dp50
I140
I1
ssI69
(dp51
I85
I1
ssI70
(dp52
I119
I1
ssI71
(dp53
I113
I1
ssI72
(dp54
I140
I1
ssI73
(dp55
I126
I1
ssI74
(dp56
I126
I1
ssI75
(dp57
I94
I1
sI126
I1
sI111
I1
ssI76
(dp58
I128
I1
sI32
I1
sI2
I1
sI37
I1
sI136
I1
sI140
I1
sI14
I1
sI111
I1
sI94
I1
sI56
I1
sI29
I1
sI126
I1
ssI77
(dp59
I91
I1
ssI78
(dp60
I126
I1
ssI79
(dp61
I91
I1
ssI80
(dp62
I113
I1
ssI82
(dp63
I119
I1
ssI84
(dp64
I85
I1
sI126
I1
ssI85
(dp65
I66
I1
sI69
I1
sI39
I1
sI136
I1
sI140
I1
sI46
I1
sI111
I1
sI20
I1
sI84
I1
sI92
I1
sI126
I1
ssI86
(dp66
I140
I1
ssI87
(dp67
I147
I1
ssI88
(dp68
I140
I1
ssI89
(dp69
I94
I1
ssI91
(dp70
I64
I1
sI1
I1
sI17
I1
sI113
I1
sI13
I1
sI77
I1
sI79
I1
sI49
I1
ssI92
(dp71
I85
I1
ssI93
(dp72
I111
I1
ssI94
(dp73
I89
I1
sI75
I1
sI76
I1
sI111
I1
ssI96
(dp74
I113
I1
ssI98
(dp75
I64
I1
sI140
I1
ssI99
(dp76
I140
I1
ssI100
(dp77
I66
I1
ssI101
(dp78
I113
I1
ssI102
(dp79
I64
I1
sI140
I1
ssI104
(dp80
I64
I1
sI140
I1
ssI105
(dp81
I64
I1
sI140
I1
ssI106
(dp82
I14
I1
ssI107
(dp83
I13
I1
sI14
I1
ssI108
(dp84
I140
I1
ssI110
(dp85
I113
I1
ssI111
(dp86
I0
I1
sI64
I1
sI66
I1
sI140
I1
sI75
I1
sI76
I1
sI13
I1
sI93
I1
sI15
I1
sI112
I1
sI52
I1
sI94
I1
sI57
I1
sI121
I1
sI123
I1
sI61
I1
sI126
I1
sI85
I1
ssI112
(dp87
I111
I1
ssI113
(dp88
I96
I1
sI35
I1
sI101
I1
sI71
I1
sI8
I1
sI12
I1
sI41
I1
sI55
I1
sI140
I1
sI13
I1
sI110
I1
sI80
I1
sI40
I1
sI18
I1
sI117
I1
sI119
I1
sI91
I1
sI10
I1
sI127
I1
ssI114
(dp89
I137
I1
sI13
I1
ssI116
(dp90
I13
I1
ssI117
(dp91
I113
I1
ssI118
(dp92
I14
I1
ssI119
(dp93
I33
I1
sI66
I1
sI70
I1
sI140
I1
sI82
I1
sI113
I1
sI146
I1
sI27
I1
ssI120
(dp94
I57
I1
sI140
I1
ssI121
(dp95
I111
I1
ssI122
(dp96
I16
I1
sI147
I1
ssI123
(dp97
I111
I1
ssI124
(dp98
I136
I1
sI39
I1
ssI125
(dp99
I13
I1
ssI126
(dp100
I140
I1
sI74
I1
sI75
I1
sI76
I1
sI78
I1
sI111
I1
sI50
I1
sI84
I1
sI14
I1
sI73
I1
sI9
I1
sI58
I1
sI85
I1
ssI127
(dp101
I113
I1
ssI128
(dp102
I32
I1
sI76
I1
sI29
I1
ssI130
(dp103
I140
I1
ssI132
(dp104
I14
I1
ssI133
(dp105
I147
I1
ssI134
(dp106
I13
I1
ssI135
(dp107
I29
I1
ssI136
(dp108
I65
I1
sI76
I1
sI85
I1
sI124
I1
ssI137
(dp109
I114
I1
sI13
I1
ssI140
(dp110
I130
I1
sI3
I1
sI6
I1
sI142
I1
sI28
I1
sI53
I1
sI64
I1
sI66
I1
sI68
I1
sI72
I1
sI76
I1
sI85
I1
sI86
I1
sI88
I1
sI98
I1
sI99
I1
sI102
I1
sI104
I1
sI105
I1
sI108
I1
sI111
I1
sI113
I1
sI119
I1
sI120
I1
sI126
I1
ssI142
(dp111
I140
I1
ssI143
(dp112
I147
I1
ssI145
(dp113
I13
I1
ssI146
(dp114
I119
I1
ssI147
(dp115
I133
I1
sI14
I1
sI143
I1
sI16
I1
sI51
I1
sI87
I1
sI122
I1
ss.(dp0
I0
S'Des Moines, IA'
p1
sg1
I0
sS'Wayne, PA'
p2
I1
sI3
S'Milwaukee, WI'
p3
sS'Tulsa, OK'
p4
I2
sg3
I3
sI6
S'South Bend, IN'
p5
sI1
g2
sI8
S'Freehold, NJ'
p6
sI9
S'Las Vegas, NV'
p7
sI10
S'Stamford, CT'
p8
sI11
S'Helena, MT'
p9
sS'Dahlgren, VA'
p10
I4
sI2
g4
sI14
S'Atlanta, GA'
p11
sg5
I6
sI16
S'Fort Lauderdale, FL'
p12
sI17
S'Harrisburg, PA'
p13
sI18
S'Bridgeport, CT'
p14
sI19
S'London, UnitedKingdom'
p15
sI20
S'Oakland, CA'
p16
sI21
S'Spokane, WA'
p17
sS'Salisbury, MD'
p18
I7
sI23
S'Nicosia, Cyprus'
p19
sI24
S'Boise, ID'
p20
sg6
I8
sI26
S'Abingdon, VA'
p21
sI27
S'Manchester, NH'
p22
sI28
S'Galva, IL'
p23
sI29
S'Houston, TX'
p24
sI30
S'Ashburn, VA'
p25
sI5
S'Vancouver, Canada'
p26
sI32
S'San Antonio, TX'
p27
sI33
S'Worcester, MA'
p28
sI34
S'Relay, MD'
p29
sI35
S'Newark, NJ'
p30
sI36
S'Paris, France'
p31
sI37
S'Oklahoma City, OK'
p32
sI38
S'Prague, CzechRepublic'
p33
sI39
S'Santa Clara, CA'
p34
sI40
S'Syracuse, NY'
p35
sI41
S'New Brusnwick, NJ'
p36
sg9
I11
sI7
g18
sI44
S'Columbia, SC'
p37
sS'New Brunswick, NJ'
p38
I12
sI46
S'Palo Alto, CA'
p39
sI47
S'Boston, MA'
p40
sI48
S'McLean, VA'
p41
sI49
S'Hamilton Square, NJ'
p42
sI50
S'Anaheim, CA'
p43
sS'Washington, DC'
p44
I13
sI52
S'Memphis, TN'
p45
sI53
S'Plymouth, MI'
p46
sg11
I14
sI55
S'White Plains, NY'
p47
sI56
S'Fort Worth, TX'
p48
sI57
S'Omaha, NE'
p49
sI58
S'Sherman Oaks, CA'
p50
sI59
S'Birmingham, AL'
p51
sI60
S'Brussels, Belgium'
p52
sI61
S'Little Rock, AR'
p53
sI62
S'Carrollton, TX'
p54
sI63
S'Sunnyvale, CA'
p55
sI64
S'Detroit, MI'
p56
sI65
S'Colorado Springs, CO'
p57
sI66
S'Seattle, WA'
p58
sI67
S'Bucharest, Romania'
p59
sI68
S'Champaign, IL'
p60
sI69
S'Honolulu, HI'
p61
sI70
S'Framingham, MA'
p62
sI71
S'Cedar Knolls, NJ'
p63
sI72
S'Indianapolis, IN'
p64
sS'Kansas City, MO'
p65
I15
sI74
S'Sacramento, CA'
p66
sI75
S'San Diego, CA'
p67
sI76
S'Dallas, TX'
p68
sI77
S'Camden, NJ'
p69
sI78
S'Gardena, CA'
p70
sg12
I16
sg13
I17
sg14
I18
sI82
S'Providence, RI'
p71
sI83
S'Budapest, Hungary'
p72
sI84
S'San Jose, CA'
p73
sI85
S'San Francisco, CA'
p74
sI86
S'Davenport, IA'
p75
sI87
S'West Palm Beach, FL'
p76
sI88
S'Oak Brook, IL'
p77
sI89
S'Albuquerque, NM'
p78
sI90
S'Toronto, Canada'
p79
sg15
I19
sI92
S'Riverside, CA'
p80
sI93
S'Louisville, KY'
p81
sI94
S'Phoenix, AZ'
p82
sI95
S'Herndon, VA'
p83
sI96
S'Hartford, CT'
p84
sI97
S'Amsterdam, Netherlands'
p85
sI98
S'Cincinnati, OH'
p86
sI99
S'St. Paul, MN'
p87
sg17
I21
sI101
S'Buffalo, NY'
p88
sI102
S'Brookhaven, MI'
p89
sI103
S'Cheyenne, WY'
p90
sI104
S'Dayton, OH'
p91
sS'Orange County, CA'
p92
I22
sI106
S'Charlotte, NC'
p93
sg19
I23
sg20
I24
sS'Vienna, Austria'
p94
I25
sI110
S'Rochelle Park, NJ'
p95
sI111
S'St Louis, MO'
p96
sI112
S'Springfield, MO'
p97
sg34
I39
sg26
I5
sI115
S'Springfield, MA'
p98
sI116
S'Baltimore, MD'
p99
sI117
S'Albany, NY'
p100
sI118
S'Dunwoody, GA'
p101
sI105
S'Cleveland, OH'
p102
sI120
S'Minneapolis, MN'
p103
sg23
I28
sI122
S'Tampa, FL'
p104
sI123
S'Bridgeton, MO'
p105
sI124
S'Salt Lake City, UT'
p106
sg24
I29
sI4
g10
sg25
I30
sS'Silver Springs, MD'
p107
I31
sI129
S'Madrid, Spain'
p108
sI130
S'Grand Rapids, MI'
p109
sI107
S'Raleigh, NC'
p110
sI132
S'Nashville, TN'
p111
sI22
g92
sI134
S'Akron, OH'
p112
sI135
S'New Orleans, LA'
p113
sI136
S'Denver, CO'
p114
sg27
I32
sI138
S'Frankfurt, Germany'
p115
sg28
I33
sI140
S'Chicago, IL'
p116
sg29
I34
sI142
S'Rolling Meadows, IL'
p117
sI109
S'Portsmouth, UnitedKingdom'
p118
sg30
I35
sI145
S'Greensboro, NC'
p119
sI146
S'Portland, ME'
p120
sg115
I138
sI25
g94
sg31
I36
sg32
I37
sg87
I99
sg21
I26
sg35
I40
sg36
I41
sS'Milan, Italy'
p121
I42
sS'Stockton, CA'
p122
I43
sI108
S'Madison, WI'
p123
sI91
S'Philadelphia, PA'
p124
sg64
I72
sI31
g107
sS'Stockholm, Sweden'
p125
I45
sg39
I46
sg40
I47
sg41
I48
sg42
I49
sI119
S'Cambridge, MA'
p126
sg43
I50
sS'Ojus, FL'
p127
I51
sg45
I52
sI121
S'Florissant, MO'
p128
sg46
I53
sS'Madison Heights, VA'
p129
I54
sS'Norfolk, VA'
p130
I125
sg66
I74
sg119
I145
sg48
I56
sg49
I57
sI127
S'Bohemia, NY'
p131
sg50
I58
sI125
g130
sI126
S'Los Angeles, CA'
p132
sg51
I59
sg52
I60
sI42
g121
sg54
I62
sI128
S'Austin, TX'
p133
sg55
I63
sI43
g122
sg56
I64
sg57
I65
sg58
I66
sg60
I68
sI45
g125
sg62
I70
sI131
S'Eugene, OR'
p134
sg63
I71
sg37
I44
sI133
S'Miami, FL'
p135
sS'San Bernadino, CA'
p136
I73
sg47
I55
sg67
I75
sg98
I115
sg68
I76
sg69
I77
sg70
I78
sS'Pittsburgh, PA'
p137
I79
sI51
g127
sI137
S'Arlington, VA'
p138
sS'Copenhagen, Denmark'
p139
I81
sg114
I136
sg71
I82
sI139
S'Charleston, SC'
p140
sI147
S'Orlando, FL'
p141
sI54
g129
sg73
I84
sg74
I85
sg75
I86
sg76
I87
sg77
I88
sg138
I137
sI141
S'Annapolis, MD'
p142
sg79
I90
sg124
I91
sg80
I92
sg81
I93
sI143
S'Jacksonville, FL'
p143
sI144
S'Vienna, VA'
p144
sg82
I94
sg83
I95
sI114
S'Richmond, VA'
p145
sg105
I123
sg84
I96
sg85
I97
sg140
I139
sg86
I98
sI12
g38
sg33
I38
sS'Portland, OR'
p146
I100
sg88
I101
sg89
I102
sS'Rochester, NY'
p147
I80
sg90
I103
sg91
I104
sg102
I105
sg93
I106
sg110
I107
sg123
I108
sg118
I109
sg95
I110
sI13
g44
sg96
I111
sg97
I112
sS'New York, NY'
p148
I113
sg143
I143
sg145
I114
sg59
I67
sg99
I116
sg100
I117
sg72
I83
sg126
I119
sg103
I120
sg8
I10
sg104
I122
sg7
I9
sg106
I124
sI73
g136
sg16
I20
sg22
I27
sg131
I127
sg133
I128
sI100
g146
sg108
I129
sg109
I130
sI15
g65
sg111
I132
sg135
I133
sg101
I118
sg112
I134
sg113
I135
sg132
I126
sI79
g137
sg61
I69
sI80
g147
sg78
I89
sg134
I131
sI81
g139
sg116
I140
sg142
I141
sg117
I142
sg53
I61
sg144
I144
sI113
g148
sg128
I121
sg120
I146
sg141
I147
s.(dp0
I1
(lp1
I140
aI136
aI126
aI113
aI66
aI111
aI13
asI7170
(lp2
I140
aI126
aI13
asI1668
(lp3
I140
aI126
aI13
asI5511
(lp4
I14
aI113
aI46
asI2828
(lp5
I140
aI85
aI13
asI11537
(lp6
I72
aI13
asI5650
(lp7
I46
aI124
aI13
asI1299
(lp8
I140
aI113
asI5400
(lp9
I30
aI126
aI113
aI85
asI3356
(lp10
I140
aI76
aI126
aI113
aI84
aI66
aI13
asI4637
(lp11
sI10910
(lp12
I14
aI140
aI76
aI126
aI113
aI147
aI91
aI85
aI66
aI13
asI4513
(lp13
I140
aI113
asI4006
(lp14
I46
aI85
asI174
(lp15
I14
aI140
aI76
aI113
aI85
asI6453
(lp16
I140
aI126
asI15290
(lp17
sI6461
(lp18
I140
aI76
aI113
aI66
aI13
asI4544
(lp19
I76
asI6467
(lp20
I13
asI209
(lp21
I14
aI140
aI76
aI136
aI126
aI113
aI91
aI66
aI13
asI4565
(lp22
I13
asI1239
(lp23
I14
aI116
aI103
aI140
aI76
aI96
aI126
aI113
aI94
aI34
aI66
aI111
aI43
aI13
asI7132
(lp24
I76
asI3549
(lp25
I140
aI133
aI113
aI85
aI66
aI13
asI2914
(lp26
I140
aI76
aI126
aI48
aI66
asI4323
(lp27
I140
aI76
aI69
aI126
aI113
aI85
aI40
asI3300
(lp28
I13
asI101
(lp29
I66
asI7911
(lp30
I76
asI3561
(lp31
I14
aI140
aI76
aI136
aI120
aI113
aI85
aI66
aI13
asI701
(lp32
I14
aI140
aI76
aI136
aI56
aI15
aI126
aI133
aI120
aI113
aI57
aI146
aI114
aI124
aI85
aI66
aI13
aI87
asI2548
(lp33
I76
aI64
aI113
aI85
aI13
asI16631
(lp34
I140
aI76
asI3320
(lp35
I113
asI1785
(lp36
I117
aI126
aI113
aI13
asI6395
(lp37
I76
aI126
aI113
asI2686
(lp38
I138
aI19
aI113
aI13
asI2687
(lp39
I126
aI85
as.