(dp0
I0
(dp1
I33
F17.0722673437741
sI4
F18.3495988076097
sI37
F18.2794162395011
sI12
F4.27086377025817
sI23
F7.44290219054975
sI27
F2.65814072487666
sI29
F1.83053301410572
ssI1
(dp2
I33
F0.330056735798249
sI4
F7.93565659619452
sI37
F2.71257848103978
sI12
F19.5602075478991
sI46
F6.65853544578616
sI51
F13.9077012943739
sI23
F9.78885581940582
sI27
F18.3446142117741
ssI2
(dp3
I19
F5.33819773994786
sI33
F18.001808302142
sI4
F18.98216578317
sI37
F19.1443875884519
sI39
F5.62820642196231
sI41
F4.88711410738906
sI12
F3.39125510012522
sI13
F4.11276174689792
sI51
F5.1339999825284
sI53
F3.16256570179669
sI22
F3.67107483667472
sI23
F8.46405012296202
sI24
F4.72610446037405
sI27
F1.8616231104935
sI29
F2.87054830888084
sI30
F3.66097104952236
ssI3
(dp4
I33
F1.85801368545196
sI4
F6.98824082413304
sI37
F3.03748851968468
sI12
F17.9391116191711
sI46
F4.94290461777074
sI51
F12.2477964598261
sI23
F8.65279966988776
sI27
F16.7787667562161
ssI4
(dp5
I0
F18.3495988076097
sI1
F7.93565659619452
sI2
F18.98216578317
sI3
F6.98824082413304
sI5
F14.3563007935942
sI7
F19.3012314510989
sI12
F19.3209613118993
sI13
F15.5239806328732
sI15
F19.2944180048151
sI19
F13.8418587470974
sI20
F5.03198520154489
sI21
F8.51978747368999
sI22
F19.3949343842529
sI23
F13.5297009811618
sI24
F20.3190003929401
sI25
F18.7311080954632
sI27
F18.6918595751372
sI29
F17.5143459791053
sI33
F7.68872484627139
sI37
F5.71561756404175
sI38
F5.46425584185052
sI39
F21.9693515292004
sI41
F19.993175944005
sI42
F19.0896785660613
sI44
F38.4696116871562
sI45
F5.62676654420176
sI46
F8.23946958515862
sI47
F8.92971964408383
sI51
F13.9413353089448
sI53
F15.8275679640746
sI55
F1.1632071890148
sI56
F20.48516282975
sI60
F15.1947572412764
sI61
F16.2545272881117
ssI5
(dp6
I33
F9.73026753143365
sI4
F14.3563007935942
sI37
F11.6636906847763
sI12
F12.7112458174267
sI51
F8.43819072387166
sI23
F2.0304558691511
sI27
F11.1513687338088
sI60
F1.51577808645583
ssI6
(dp7
I49
F2.3608930700131
sI43
F2.16152721948152
sI44
F4.62071213151615
ssI7
(dp8
I33
F19.7129293095592
sI4
F19.3012314510989
sI37
F20.488148921334
sI42
F0.635958566536213
sI12
F0.0312643364659312
sI51
F5.71376896220664
sI23
F11.0037851811598
sI27
F1.64134190753599
ssI8
(dp9
I41
F9.074516715253178
ssI9
(dp10
I33
F20.4912489017835
ssI10
(dp11
I12
F0.0710684956979026
ssI11
(dp12
I37
F0.124477546789977
ssI12
(dp13
I0
F4.27086377025817
sI1
F19.5602075478991
sI2
F3.39125510012522
sI3
F17.9391116191711
sI4
F19.3209613118993
sI5
F12.7112458174267
sI7
F0.0312643364659312
sI10
F0.0710684956979026
sI13
F3.88956907223441
sI15
F0.141106154689448
sI16
F29.1588945256645
sI19
F7.01068897472049
sI20
F20.1014066858336
sI21
F19.491370482797
sI22
F0.280723638773994
sI23
F11.0009242092306
sI24
F8.07512730237914
sI25
F1.35482147163357
sI27
F1.62733364571067
sI28
F0.154889595099279
sI29
F6.00743024175476
sI33
F19.7210147124792
sI37
F20.4998013750844
sI38
F20.6843954593898
sI39
F8.77880309119896
sI40
F28.8193415655172
sI41
F1.52818775993091
sI42
F0.620583384672223
sI43
F30.9779065131767
sI44
F27.8377559786444
sI45
F15.8327352787206
sI46
F13.0319252204767
sI47
F17.184736870328
sI51
F5.72539765160039
sI53
F4.53202034122801
sI54
F31.5982426456463
sI56
F7.55145592209754
sI60
F11.4027441257575
sI61
F3.24743960868072
ssI13
(dp14
I33
F15.9481449750702
sI2
F4.11276174689792
sI4
F15.5239806328732
sI37
F16.6349260061567
sI12
F3.88956907223441
sI51
F1.89714357641037
sI23
F8.01165821504847
sI27
F3.21198066343449
ssI14
(dp15
I43
F2.0357355149515
sI44
F3.60467312251354
ssI15
(dp16
I33
F19.6400586232912
sI4
F19.2944180048151
sI37
F20.4333049261819
sI12
F0.141106154689448
sI46
F12.9594752263768
sI51
F5.66006296520887
sI23
F10.8851212713146
sI27
F1.49060940405506
sI29
F5.87074289160728
sI30
F5.97938876597481
ssI16
(dp17
I27
F30.7859883557325
sI44
F1.71246693397065
sI43
F2.34012884016252
sI52
F2.01525285021424
sI12
F29.1588945256645
ssI17
(dp18
I53
F0.803697786813125
ssI18
(dp19
I51
F2.85501508977803
ssI19
(dp20
I33
F12.8136884315574
sI2
F5.33819773994786
sI4
F13.8418587470974
sI37
F13.8309070724106
sI12
F7.01068897472049
sI51
F2.09122114457625
sI23
F4.38860704167783
sI27
F5.71485509784267
ssI20
(dp21
I33
F2.84864363952102
sI4
F5.03198520154489
sI37
F0.714419239023442
sI12
F20.1014066858336
sI51
F14.379523395025
sI23
F11.582016414369
sI27
F19.0869253442257
ssI21
(dp22
I33
F0.930875068217323
sI4
F8.51978747368999
sI37
F3.3211522299544
sI12
F19.491370482797
sI46
F6.71050946590421
sI51
F13.8786751988483
sI23
F9.5058815972022
sI27
F18.2394468044859
sI29
F15.1431230870802
ssI22
(dp23
I33
F19.8989532740876
sI2
F3.67107483667472
sI4
F19.3949343842529
sI37
F20.6504431819649
sI12
F0.280723638773994
sI51
F5.87936801526091
sI23
F11.2430856502308
sI27
F1.90457181681882
ssI23
(dp24
I0
F7.44290219054975
sI1
F9.78885581940582
sI2
F8.46405012296202
sI3
F8.65279966988776
sI4
F13.5297009811618
sI5
F2.0304558691511
sI7
F11.0037851811598
sI12
F11.0009242092306
sI13
F8.01165821504847
sI15
F10.8851212713146
sI19
F4.38860704167783
sI20
F11.582016414369
sI21
F9.5058815972022
sI22
F11.2430856502308
sI24
F7.34711766697769
sI25
F9.72322027965186
sI27
F9.49836499313979
sI29
F5.75137875158028
sI30
F4.93325950050165
sI33
F10.0456672433203
sI37
F11.6748469301052
sI38
F11.9855228230229
sI39
F8.90426431888901
sI41
F12.4363734730694
sI42
F10.4325406765224
sI45
F8.0588108384029
sI46
F5.31257916564315
sI47
F7.13022347450063
sI51
F6.43760504337832
sI53
F6.55702429142063
sI56
F7.70699136339725
sI60
F1.79734274874247
sI61
F8.22107498325243
ssI24
(dp25
I33
F17.355078362519
sI2
F4.72610446037405
sI4
F20.3190003929401
sI37
F19.0194169040216
sI12
F8.07512730237914
sI51
F8.07205861019873
sI23
F7.34711766697769
sI27
F6.58757021264865
ssI25
(dp26
I33
F18.6766341461069
sI4
F18.7311080954632
sI37
F19.5680477997134
sI12
F1.35482147163357
sI51
F4.86978736191705
sI23
F9.72322027965186
sI26
F1.58054288269984
sI27
F0.281322687176047
ssI26
(dp27
I25
F1.58054288269984
ssI27
(dp28
I0
F2.65814072487666
sI1
F18.3446142117741
sI2
F1.8616231104935
sI3
F16.7787667562161
sI4
F18.6918595751372
sI5
F11.1513687338088
sI7
F1.64134190753599
sI12
F1.62733364571067
sI13
F3.21198066343449
sI15
F1.49060940405506
sI16
F30.7859883557325
sI19
F5.71485509784267
sI20
F19.0869253442257
sI21
F18.2394468044859
sI22
F1.90457181681882
sI23
F9.49836499313979
sI24
F6.58757021264865
sI25
F0.281322687176047
sI29
F4.38018878263173
sI33
F18.5226753489951
sI37
F19.4442417506344
sI38
F19.6506122689107
sI39
F7.44426393180017
sI40
F30.4067905705861
sI41
F3.15550474307128
sI42
F1.00741082347545
sI43
F32.6040058370753
sI44
F29.4645463284345
sI45
F14.8356694118214
sI46
F11.9373254278376
sI47
F15.8987822403206
sI48
F33.9252207063578
sI51
F4.79269864527852
sI53
F3.22091900635453
sI56
F6.10053908846644
sI60
F9.81518726240613
sI61
F2.46048098729345
sI62
F0.225316255475169
ssI28
(dp29
I12
F0.154889595099279
ssI29
(dp30
I0
F1.83053301410572
sI33
F15.5956600742354
sI2
F2.87054830888084
sI27
F4.38018878263173
sI4
F17.5143459791053
sI37
F16.9491450566271
sI12
F6.00743024175476
sI46
F9.67081135208023
sI47
F12.7518948089011
sI51
F4.71810812635976
sI21
F15.1431230870802
sI23
F5.75137875158028
sI15
F5.87074289160728
ssI30
(dp31
I33
F14.3486781889034
sI2
F3.66097104952236
sI15
F5.97938876597481
sI37
F15.5538373024986
sI23
F4.93325950050165
ssI31
(dp32
I46
F0.126799923754566
ssI32
(dp33
I43
F6.00851418900465
ssI33
(dp34
I0
F17.0722673437741
sI1
F0.330056735798249
sI2
F18.001808302142
sI3
F1.85801368545196
sI4
F7.68872484627139
sI5
F9.73026753143365
sI7
F19.7129293095592
sI9
F20.4912489017835
sI12
F19.7210147124792
sI13
F15.9481449750702
sI15
F19.6400586232912
sI19
F12.8136884315574
sI20
F2.84864363952102
sI21
F0.930875068217323
sI22
F19.8989532740876
sI23
F10.0456672433203
sI24
F17.355078362519
sI25
F18.6766341461069
sI27
F18.5226753489951
sI29
F15.5956600742354
sI30
F14.3486781889034
sI37
F2.39033852037053
sI39
F18.8519227076216
sI41
F20.8864181920654
sI42
F19.27296065188
sI45
F4.67700418361009
sI46
F6.77495897647902
sI47
F2.94005274291922
sI51
F14.0526484629278
sI53
F15.3017628980041
sI56
F17.7437123502417
sI60
F11.0914798639502
sI61
F16.4971634786592
ssI34
(dp35
I60
F1.17633330140073
ssI35
(dp36
I41
F0.330679607086371
ssI36
(dp37
I41
F25.3158080629189
ssI37
(dp38
I0
F18.2794162395011
sI1
F2.71257848103978
sI2
F19.1443875884519
sI3
F3.03748851968468
sI4
F5.71561756404175
sI5
F11.6636906847763
sI7
F20.488148921334
sI11
F0.124477546789977
sI12
F20.4998013750844
sI13
F16.6349260061567
sI15
F20.4333049261819
sI19
F13.8309070724106
sI20
F0.714419239023442
sI21
F3.3211522299544
sI22
F20.6504431819649
sI23
F11.6748469301052
sI24
F19.0194169040216
sI25
F19.5680477997134
sI27
F19.4442417506344
sI29
F16.9491450566271
sI30
F15.5538373024986
sI33
F2.39033852037053
sI38
F0.381420811600469
sI39
F20.5757186821716
sI41
F21.5400443557056
sI42
F20.1067873227153
sI45
F4.70463733527364
sI46
F7.50910338728108
sI47
F4.92145703772741
sI51
F14.7744081963979
sI53
F16.2512133607094
sI56
F19.3571455209828
sI60
F12.9243808535192
sI61
F17.2525090468823
ssI38
(dp39
I4
F5.46425584185052
sI37
F0.381420811600469
sI12
F20.6843954593898
sI46
F7.72580873446228
sI51
F14.960010383025
sI23
F11.9855228230229
sI27
F19.6506122689107
ssI39
(dp40
I33
F18.8519227076216
sI2
F5.62820642196231
sI4
F21.9693515292004
sI37
F20.5757186821716
sI12
F8.77880309119896
sI46
F13.8282594395366
sI51
F9.56272458116584
sI23
F8.90426431888901
sI27
F7.44426393180017
ssI40
(dp41
I27
F30.4067905705861
sI12
F28.8193415655172
sI43
F7.15087408784109
sI44
F6.31536032045267
ssI41
(dp42
I33
F20.8864181920654
sI2
F4.88711410738906
sI35
F0.330679607086371
sI36
F25.3158080629189
sI37
F21.5400443557056
sI8
F9.074516715253178
sI12
F1.52818775993091
sI46
F14.1420447163401
sI51
F6.83381142072769
sI23
F12.4363734730694
sI4
F19.993175944005
sI27
F3.15550474307128
ssI42
(dp43
I33
F19.27296065188
sI27
F1.00741082347545
sI4
F19.0896785660613
sI37
F20.1067873227153
sI7
F0.635958566536213
sI12
F0.620583384672223
sI46
F12.618408070217
sI51
F5.3491117284948
sI23
F10.4325406765224
sI59
F0.282703724413204
ssI43
(dp44
I32
F6.00851418900465
sI6
F2.16152721948152
sI40
F7.15087408784109
sI12
F30.9779065131767
sI44
F3.15804073417278
sI14
F2.0357355149515
sI16
F2.34012884016252
sI49
F0.944468343206374
sI52
F1.55963394775673
sI54
F1.47245906075377
sI57
F1.51653740453145
sI58
F1.5622819497653
sI27
F32.6040058370753
ssI44
(dp45
I16
F1.71246693397065
sI4
F38.4696116871562
sI6
F4.62071213151615
sI40
F6.31536032045267
sI43
F3.15804073417278
sI12
F27.8377559786444
sI14
F3.60467312251354
sI48
F4.78915796529137
sI49
F2.37977630245223
sI51
F31.7641191210355
sI52
F1.88532911009081
sI54
F3.87862930965681
sI57
F4.58678251895811
sI58
F1.59576807051388
sI27
F29.4645463284345
ssI45
(dp46
I33
F4.67700418361009
sI4
F5.62676654420176
sI37
F4.70463733527364
sI12
F15.8327352787206
sI46
F3.03927743798862
sI51
F10.1122732690684
sI23
F8.0588108384029
sI27
F14.8356694118214
ssI46
(dp47
I1
F6.65853544578616
sI33
F6.77495897647902
sI3
F4.94290461777074
sI4
F8.23946958515862
sI37
F7.50910338728108
sI38
F7.72580873446228
sI39
F13.8282594395366
sI41
F14.1420447163401
sI42
F12.618408070217
sI12
F13.0319252204767
sI45
F3.03927743798862
sI47
F4.71855022803752
sI27
F11.9373254278376
sI51
F7.31964781963753
sI21
F6.71050946590421
sI23
F5.31257916564315
sI56
F12.4154307252622
sI15
F12.9594752263768
sI60
F7.03404047235019
sI29
F9.67081135208023
sI31
F0.126799923754566
ssI47
(dp48
I33
F2.94005274291922
sI4
F8.92971964408383
sI37
F4.92145703772741
sI12
F17.184736870328
sI46
F4.71855022803752
sI51
F11.6351669582945
sI23
F7.13022347450063
sI27
F15.8987822403206
sI29
F12.7518948089011
ssI48
(dp49
I27
F33.9252207063578
sI44
F4.78915796529137
ssI49
(dp50
I43
F0.944468343206374
sI44
F2.37977630245223
sI6
F2.3608930700131
ssI50
(dp51
I60
F2.63735820936562
ssI51
(dp52
I1
F13.9077012943739
sI2
F5.1339999825284
sI3
F12.2477964598261
sI4
F13.9413353089448
sI5
F8.43819072387166
sI7
F5.71376896220664
sI12
F5.72539765160039
sI13
F1.89714357641037
sI15
F5.66006296520887
sI18
F2.85501508977803
sI19
F2.09122114457625
sI20
F14.379523395025
sI21
F13.8786751988483
sI22
F5.87936801526091
sI23
F6.43760504337832
sI24
F8.07205861019873
sI25
F4.86978736191705
sI27
F4.79269864527852
sI29
F4.71810812635976
sI33
F14.0526484629278
sI37
F14.7744081963979
sI38
F14.960010383025
sI39
F9.56272458116584
sI41
F6.83381142072769
sI42
F5.3491117284948
sI44
F31.7641191210355
sI45
F10.1122732690684
sI46
F7.31964781963753
sI47
F11.6351669582945
sI53
F2.01223970834797
sI56
F7.91959880074888
sI60
F7.55619251202906
sI61
F2.47832477920296
ssI52
(dp53
I16
F2.01525285021424
sI58
F0.699743613611879
sI43
F1.55963394775673
sI44
F1.88532911009081
ssI53
(dp54
I33
F15.3017628980041
sI2
F3.16256570179669
sI4
F15.8275679640746
sI37
F16.2512133607094
sI12
F4.53202034122801
sI17
F0.803697786813125
sI51
F2.01223970834797
sI23
F6.55702429142063
sI27
F3.22091900635453
ssI54
(dp55
I12
F31.5982426456463
sI43
F1.47245906075377
sI44
F3.87862930965681
ssI55
(dp56
I4
F1.1632071890148
ssI56
(dp57
I33
F17.7437123502417
sI4
F20.48516282975
sI37
F19.3571455209828
sI12
F7.55145592209754
sI46
F12.4154307252622
sI51
F7.91959880074888
sI23
F7.70699136339725
sI27
F6.10053908846644
ssI57
(dp58
I43
F1.51653740453145
sI44
F4.58678251895811
ssI58
(dp59
I44
F1.59576807051388
sI43
F1.5622819497653
sI52
F0.699743613611879
ssI59
(dp60
I42
F0.282703724413204
ssI60
(dp61
I33
F11.0914798639502
sI34
F1.17633330140073
sI4
F15.1947572412764
sI5
F1.51577808645583
sI12
F11.4027441257575
sI46
F7.03404047235019
sI50
F2.63735820936562
sI51
F7.55619251202906
sI23
F1.79734274874247
sI27
F9.81518726240613
sI37
F12.9243808535192
ssI61
(dp62
I33
F16.4971634786592
sI4
F16.2545272881117
sI37
F17.2525090468823
sI12
F3.24743960868072
sI51
F2.47832477920296
sI23
F8.22107498325243
sI27
F2.46048098729345
ssI62
(dp63
I27
F0.225316255475169
ss.(dp0
I0
S'Charlotte, NC'
p1
sI1
S'Tustin, CA'
p2
sI2
S'Raleigh, NC'
p3
sI3
S'Las Vegas, NV'
p4
sI4
S'Seattle, WA'
p5
sI5
S'San Antonio, TX'
p6
sI6
S'Berlin, Germany'
p7
sI7
S'Weehawken, NJ'
p8
sI8
S'Manchester, MA'
p9
sI9
S'Honolulu, HI'
p10
sI10
S'Newark, NJ'
p11
sI11
S'Palo Alto, CA'
p12
sI12
S'New York, NY'
p13
sI13
S'Detroit, MI'
p14
sI14
S'Hamburg, Germany'
p15
sI15
S'Richmond, VA'
p16
sI16
S'Paris, France'
p17
sI17
S'Indianapolis, IN'
p18
sI18
S'Minneapolis, MN'
p19
sI19
S'St. Louis, MO'
p20
sI20
S'Sacramento, CA'
p21
sI21
S'San Diego, CA'
p22
sI22
S'Stamford, CT'
p23
sI23
S'Dallas, TX'
p24
sI24
S'Tampa, FL'
p25
sI25
S'Baltimore, MD'
p26
sI26
S'Pittsburgh, PA'
p27
sI27
S'Washington, DC'
p28
sI28
S'Garden City, NY'
p29
sI29
S'Atlanta, GA'
p30
sI30
S'Nashville, TN'
p31
sI31
S'Broomfield, CO'
p32
sI32
S'Stockholm, Sweden'
p33
sI33
S'Los Angeles, CA'
p34
sI34
S'Austin, TX'
p35
sI35
S'Providence, RI'
p36
sI36
S'Manchester, UnitedKingdom'
p37
sI37
S'San Jose, CA'
p38
sI38
S'San Francisco, CA'
p39
sI39
S'Miami, FL'
p40
sI40
S'Madrid, Spain'
p41
sI41
S'Boston, MA'
p42
sI42
S'Philadelphia, PA'
p43
sI43
S'Frankfurt, Germany'
p44
sI44
S'London, UnitedKingdom'
p45
sI45
S'Salt Lake City, UT'
p46
sI46
S'Denver, CO'
p47
sI47
S'Phoenix, AZ'
p48
sI48
S'Milan, Italy'
p49
sI49
S'Dusseldorf, Germany'
p50
sI50
S'New Orleans, LA'
p51
sg28
I27
sI52
S'Amsterdam, Netherlands'
p52
sI53
S'Cincinnati, OH'
p53
sg30
I29
sI55
S'Portland, OR'
p54
sI56
S'Orlando, FL'
p55
sg32
I31
sI58
S'Brussels, Belgium'
p56
sI59
S'Princeton, NJ'
p57
sI60
S'Houston, TX'
p58
sI61
S'Cleveland, OH'
p59
sI62
S'Ashburn, VA'
p60
sg45
I44
sg58
I60
sg60
I62
sg6
I5
sg9
I8
sg11
I10
sg37
I36
sg17
I16
sg49
I48
sg33
I32
sg12
I11
sg42
I41
sg50
I49
sS'Zurich, Switzerland'
p61
I54
sg56
I58
sg14
I13
sg5
I4
sg10
I9
sg18
I17
sg21
I20
sg22
I21
sg24
I23
sg2
I1
sg27
I26
sI51
S'Chicago, IL'
p62
sg36
I35
sI54
g61
sg38
I37
sg39
I38
sg41
I40
sg43
I42
sg44
I43
sI57
S'Munich, Germany'
p63
sg48
I47
sg52
I52
sg53
I53
sg54
I55
sg59
I61
sg1
I0
sg3
I2
sg7
I6
sg57
I59
sg13
I12
sg16
I15
sg26
I25
sg19
I18
sg20
I19
sg23
I22
sg25
I24
sg4
I3
sg46
I45
sg29
I28
sg34
I33
sg35
I34
sg8
I7
sg31
I30
sg40
I39
sg51
I50
sg47
I46
sg62
I51
sg63
I57
sg55
I56
sg15
I14
s.(dp0
I0
(lp1
I4323
asI33
(lp2
I1
aI12050
aI1299
aI4637
aI6453
aI16631
aI209
aI1239
aI3549
aI2914
aI7018
aI701
asI11
(lp3
I4565
aI3549
aI4725
aI7543
asI4
(lp4
I1
aI6453
aI209
aI1239
aI11608
aI101
aI7018
aI701
asI37
(lp5
I5511
aI2828
aI12050
aI1299
aI6939
aI4637
aI174
aI6453
aI2497
aI209
aI1239
aI2914
aI7911
aI3561
aI7018
aI5650
aI701
aI7543
aI3967
asI38
(lp6
I10910
aI15412
aI6395
asI39
(lp7
I12050
asI44
(lp8
I1668
aI5511
aI4589
aI1299
aI4513
aI6453
aI6461
aI702
aI1239
aI3549
aI2914
aI3320
asI43
(lp9
I1668
aI7176
aI4589
aI1299
aI5669
aI6461
aI13129
aI3549
aI2914
aI3561
asI12
(lp10
I1
aI1668
aI5511
aI2828
aI1299
aI8220
aI10910
aI174
aI15412
aI6461
aI209
aI1239
aI3549
aI2914
aI7911
aI3561
aI7018
aI701
aI2548
aI3320
aI1785
asI46
(lp11
I1
aI209
asI16
(lp12
I5511
aI3561
asI51
(lp13
I1
aI1668
aI5511
aI2828
aI12050
aI10910
aI6461
aI1239
aI2914
aI3561
aI7018
aI701
asI52
(lp14
I1299
aI6461
aI1239
aI3549
aI3300
aI3561
asI41
(lp15
I12050
asI23
(lp16
I1668
aI12050
aI4637
aI209
aI1239
aI3549
aI2914
aI3561
aI7018
aI701
aI2548
aI6395
asI58
(lp17
I4589
asI27
(lp18
I1668
aI6939
aI4637
aI10910
aI4513
aI6461
aI16631
aI209
aI4565
aI7911
aI3561
aI7018
aI701
asI29
(lp19
I1668
aI5511
aI12050
aI10910
aI701
asI62
(lp20
I6453
as.