(dp0
I2
(dp1
I3
F4.38018878263173
sI9
F29.4645463284345
sI13
F9.81518726240613
sI14
F0.225316255475169
sI15
F11.1513687338088
sI20
F30.7859883557325
sI21
F33.9252207063578
sI26
F3.15550474307128
sI37
F3.21198066343449
sI38
F18.6918595751372
sI44
F19.0869253442257
sI45
F18.2394468044859
sI46
F9.49836499313979
sI47
F18.3446142117741
sI52
F19.4442417506344
sI53
F19.6506122689107
sI54
F30.4067905705861
sI55
F1.00741082347545
sI56
F32.6040058370753
sI57
F15.8987822403206
sI62
F3.22091900635453
sI67
F2.46048098729345
sI68
F2.65814072487666
sI69
F1.8616231104935
sI72
F1.62733364571067
sI73
F1.49060940405506
sI74
F0.281322687176047
sI76
F5.71485509784267
sI77
F1.90457181681882
sI78
F6.58757021264865
sI79
F16.7787667562161
sI80
F14.8356694118214
sI84
F18.5226753489951
sI86
F1.64134190753599
sI89
F7.44426393180017
sI92
F11.9373254278376
sI93
F4.79269864527852
sI98
F6.10053908846644
ssI3
(dp2
I2
F4.38018878263173
sI68
F1.83053301410572
sI69
F2.87054830888084
sI38
F17.5143459791053
sI72
F6.00743024175476
sI73
F5.87074289160728
sI45
F15.1431230870802
sI46
F5.75137875158028
sI84
F15.5956600742354
sI57
F12.7518948089011
sI92
F9.67081135208023
sI93
F4.71810812635976
sI52
F16.9491450566271
ssI4
(dp3
I92
F0.126799923754566
ssI9
(dp4
I96
F4.58678251895811
sI33
F3.87862930965681
sI34
F1.59576807051388
sI99
F3.60467312251354
sI38
F38.4696116871562
sI70
F4.62071213151615
sI72
F27.8377559786444
sI2
F29.4645463284345
sI20
F1.71246693397065
sI21
F4.78915796529137
sI54
F6.31536032045267
sI56
F3.15804073417278
sI60
F1.88532911009081
sI93
F31.7641191210355
sI30
F2.37977630245223
ssI13
(dp5
I2
F9.81518726240613
sI38
F15.1947572412764
sI72
F11.4027441257575
sI46
F1.79734274874247
sI15
F1.51577808645583
sI84
F11.0914798639502
sI85
F1.17633330140073
sI52
F12.9243808535192
sI90
F2.63735820936562
sI92
F7.03404047235019
sI93
F7.55619251202906
ssI14
(dp6
I2
F0.225316255475169
ssI15
(dp7
I2
F11.1513687338088
sI38
F14.3563007935942
sI72
F12.7112458174267
sI13
F1.51577808645583
sI46
F2.0304558691511
sI52
F11.6636906847763
sI84
F9.73026753143365
sI93
F8.43819072387166
ssI16
(dp8
I26
F9.074516715253178
ssI17
(dp9
I72
F0.0710684956979026
ssI18
(dp10
I26
F25.3158080629189
ssI20
(dp11
I56
F2.34012884016252
sI9
F1.71246693397065
sI2
F30.7859883557325
sI60
F2.01525285021424
sI72
F29.1588945256645
ssI21
(dp12
I9
F4.78915796529137
sI2
F33.9252207063578
ssI24
(dp13
I56
F6.00851418900465
ssI25
(dp14
I52
F0.124477546789977
ssI26
(dp15
I2
F3.15550474307128
sI69
F4.88711410738906
sI38
F19.993175944005
sI72
F1.52818775993091
sI46
F12.4363734730694
sI16
F9.074516715253178
sI18
F25.3158080629189
sI51
F0.330679607086371
sI84
F20.8864181920654
sI52
F21.5400443557056
sI92
F14.1420447163401
sI93
F6.83381142072769
ssI30
(dp16
I56
F0.944468343206374
sI9
F2.37977630245223
sI70
F2.3608930700131
ssI33
(dp17
I56
F1.47245906075377
sI9
F3.87862930965681
sI72
F31.5982426456463
ssI34
(dp18
I56
F1.5622819497653
sI9
F1.59576807051388
sI60
F0.699743613611879
ssI37
(dp19
I2
F3.21198066343449
sI69
F4.11276174689792
sI38
F15.5239806328732
sI72
F3.88956907223441
sI46
F8.01165821504847
sI52
F16.6349260061567
sI84
F15.9481449750702
sI93
F1.89714357641037
ssI38
(dp20
I2
F18.6918595751372
sI3
F17.5143459791053
sI9
F38.4696116871562
sI13
F15.1947572412764
sI15
F14.3563007935942
sI26
F19.993175944005
sI37
F15.5239806328732
sI44
F5.03198520154489
sI45
F8.51978747368999
sI46
F13.5297009811618
sI47
F7.93565659619452
sI52
F5.71561756404175
sI53
F5.46425584185052
sI55
F19.0896785660613
sI57
F8.92971964408383
sI62
F15.8275679640746
sI64
F1.1632071890148
sI67
F16.2545272881117
sI68
F18.3495988076097
sI69
F18.98216578317
sI72
F19.3209613118993
sI73
F19.2944180048151
sI74
F18.7311080954632
sI76
F13.8418587470974
sI77
F19.3949343842529
sI78
F20.3190003929401
sI79
F6.98824082413304
sI80
F5.62676654420176
sI84
F7.68872484627139
sI86
F19.3012314510989
sI89
F21.9693515292004
sI92
F8.23946958515862
sI93
F13.9413353089448
sI98
F20.48516282975
ssI39
(dp21
I84
F20.4912489017835
ssI42
(dp22
I62
F0.803697786813125
ssI44
(dp23
I2
F19.0869253442257
sI38
F5.03198520154489
sI72
F20.1014066858336
sI46
F11.582016414369
sI52
F0.714419239023442
sI84
F2.84864363952102
sI93
F14.379523395025
ssI45
(dp24
I2
F18.2394468044859
sI3
F15.1431230870802
sI38
F8.51978747368999
sI72
F19.491370482797
sI46
F9.5058815972022
sI84
F0.930875068217323
sI52
F3.3211522299544
sI92
F6.71050946590421
sI93
F13.8786751988483
ssI46
(dp25
I2
F9.49836499313979
sI3
F5.75137875158028
sI13
F1.79734274874247
sI15
F2.0304558691511
sI26
F12.4363734730694
sI37
F8.01165821504847
sI38
F13.5297009811618
sI44
F11.582016414369
sI45
F9.5058815972022
sI47
F9.78885581940582
sI52
F11.6748469301052
sI53
F11.9855228230229
sI55
F10.4325406765224
sI57
F7.13022347450063
sI62
F6.55702429142063
sI67
F8.22107498325243
sI68
F7.44290219054975
sI69
F8.46405012296202
sI72
F11.0009242092306
sI73
F10.8851212713146
sI74
F9.72322027965186
sI76
F4.38860704167783
sI77
F11.2430856502308
sI78
F7.34711766697769
sI79
F8.65279966988776
sI80
F8.0588108384029
sI84
F10.0456672433203
sI86
F11.0037851811598
sI88
F4.93325950050165
sI89
F8.90426431888901
sI92
F5.31257916564315
sI93
F6.43760504337832
sI98
F7.70699136339725
ssI47
(dp26
I2
F18.3446142117741
sI38
F7.93565659619452
sI72
F19.5602075478991
sI46
F9.78885581940582
sI84
F0.330056735798249
sI52
F2.71257848103978
sI92
F6.65853544578616
sI93
F13.9077012943739
ssI48
(dp27
I74
F1.58054288269984
ssI51
(dp28
I26
F0.330679607086371
ssI52
(dp29
I2
F19.4442417506344
sI3
F16.9491450566271
sI13
F12.9243808535192
sI15
F11.6636906847763
sI25
F0.124477546789977
sI26
F21.5400443557056
sI37
F16.6349260061567
sI38
F5.71561756404175
sI44
F0.714419239023442
sI45
F3.3211522299544
sI46
F11.6748469301052
sI47
F2.71257848103978
sI53
F0.381420811600469
sI55
F20.1067873227153
sI57
F4.92145703772741
sI62
F16.2512133607094
sI67
F17.2525090468823
sI68
F18.2794162395011
sI69
F19.1443875884519
sI72
F20.4998013750844
sI73
F20.4333049261819
sI74
F19.5680477997134
sI76
F13.8309070724106
sI77
F20.6504431819649
sI78
F19.0194169040216
sI79
F3.03748851968468
sI80
F4.70463733527364
sI84
F2.39033852037053
sI86
F20.488148921334
sI88
F15.5538373024986
sI89
F20.5757186821716
sI92
F7.50910338728108
sI93
F14.7744081963979
sI98
F19.3571455209828
ssI53
(dp30
I2
F19.6506122689107
sI38
F5.46425584185052
sI72
F20.6843954593898
sI46
F11.9855228230229
sI52
F0.381420811600469
sI92
F7.72580873446228
sI93
F14.960010383025
ssI54
(dp31
I56
F7.15087408784109
sI9
F6.31536032045267
sI2
F30.4067905705861
sI72
F28.8193415655172
ssI55
(dp32
I2
F1.00741082347545
sI38
F19.0896785660613
sI71
F0.282703724413204
sI72
F0.620583384672223
sI46
F10.4325406765224
sI84
F19.27296065188
sI86
F0.635958566536213
sI52
F20.1067873227153
sI92
F12.618408070217
sI93
F5.3491117284948
ssI56
(dp33
I96
F1.51653740453145
sI33
F1.47245906075377
sI34
F1.5622819497653
sI99
F2.0357355149515
sI70
F2.16152721948152
sI72
F30.9779065131767
sI9
F3.15804073417278
sI2
F32.6040058370753
sI20
F2.34012884016252
sI54
F7.15087408784109
sI24
F6.00851418900465
sI60
F1.55963394775673
sI30
F0.944468343206374
ssI57
(dp34
I2
F15.8987822403206
sI3
F12.7518948089011
sI38
F8.92971964408383
sI72
F17.184736870328
sI46
F7.13022347450063
sI84
F2.94005274291922
sI52
F4.92145703772741
sI92
F4.71855022803752
sI93
F11.6351669582945
ssI60
(dp35
I56
F1.55963394775673
sI9
F1.88532911009081
sI34
F0.699743613611879
sI20
F2.01525285021424
ssI62
(dp36
I2
F3.22091900635453
sI69
F3.16256570179669
sI38
F15.8275679640746
sI72
F4.53202034122801
sI42
F0.803697786813125
sI46
F6.55702429142063
sI84
F15.3017628980041
sI52
F16.2512133607094
sI93
F2.01223970834797
ssI64
(dp37
I38
F1.1632071890148
ssI67
(dp38
I2
F2.46048098729345
sI38
F16.2545272881117
sI72
F3.24743960868072
sI46
F8.22107498325243
sI52
F17.2525090468823
sI84
F16.4971634786592
sI93
F2.47832477920296
ssI68
(dp39
I2
F2.65814072487666
sI3
F1.83053301410572
sI38
F18.3495988076097
sI72
F4.27086377025817
sI46
F7.44290219054975
sI52
F18.2794162395011
sI84
F17.0722673437741
ssI69
(dp40
I2
F1.8616231104935
sI3
F2.87054830888084
sI37
F4.11276174689792
sI38
F18.98216578317
sI72
F3.39125510012522
sI76
F5.33819773994786
sI77
F3.67107483667472
sI46
F8.46405012296202
sI84
F18.001808302142
sI78
F4.72610446037405
sI88
F3.66097104952236
sI89
F5.62820642196231
sI26
F4.88711410738906
sI93
F5.1339999825284
sI62
F3.16256570179669
sI52
F19.1443875884519
ssI70
(dp41
I56
F2.16152721948152
sI9
F4.62071213151615
sI30
F2.3608930700131
ssI71
(dp42
I55
F0.282703724413204
ssI72
(dp43
I2
F1.62733364571067
sI3
F6.00743024175476
sI9
F27.8377559786444
sI13
F11.4027441257575
sI15
F12.7112458174267
sI17
F0.0710684956979026
sI20
F29.1588945256645
sI26
F1.52818775993091
sI33
F31.5982426456463
sI37
F3.88956907223441
sI38
F19.3209613118993
sI44
F20.1014066858336
sI45
F19.491370482797
sI46
F11.0009242092306
sI47
F19.5602075478991
sI52
F20.4998013750844
sI53
F20.6843954593898
sI54
F28.8193415655172
sI55
F0.620583384672223
sI56
F30.9779065131767
sI57
F17.184736870328
sI62
F4.53202034122801
sI67
F3.24743960868072
sI68
F4.27086377025817
sI69
F3.39125510012522
sI73
F0.141106154689448
sI74
F1.35482147163357
sI76
F7.01068897472049
sI77
F0.280723638773994
sI78
F8.07512730237914
sI79
F17.9391116191711
sI80
F15.8327352787206
sI81
F0.154889595099279
sI84
F19.7210147124792
sI86
F0.0312643364659312
sI89
F8.77880309119896
sI92
F13.0319252204767
sI93
F5.72539765160039
sI98
F7.55145592209754
ssI73
(dp44
I2
F1.49060940405506
sI3
F5.87074289160728
sI38
F19.2944180048151
sI72
F0.141106154689448
sI46
F10.8851212713146
sI84
F19.6400586232912
sI88
F5.97938876597481
sI52
F20.4333049261819
sI92
F12.9594752263768
sI93
F5.66006296520887
ssI74
(dp45
I2
F0.281322687176047
sI38
F18.7311080954632
sI72
F1.35482147163357
sI46
F9.72322027965186
sI48
F1.58054288269984
sI84
F18.6766341461069
sI52
F19.5680477997134
sI93
F4.86978736191705
ssI75
(dp46
I93
F2.85501508977803
ssI76
(dp47
I2
F5.71485509784267
sI69
F5.33819773994786
sI38
F13.8418587470974
sI72
F7.01068897472049
sI46
F4.38860704167783
sI52
F13.8309070724106
sI84
F12.8136884315574
sI93
F2.09122114457625
ssI77
(dp48
I2
F1.90457181681882
sI69
F3.67107483667472
sI38
F19.3949343842529
sI72
F0.280723638773994
sI46
F11.2430856502308
sI52
F20.6504431819649
sI84
F19.8989532740876
sI93
F5.87936801526091
ssI78
(dp49
I2
F6.58757021264865
sI69
F4.72610446037405
sI38
F20.3190003929401
sI72
F8.07512730237914
sI46
F7.34711766697769
sI52
F19.0194169040216
sI84
F17.355078362519
sI93
F8.07205861019873
ssI79
(dp50
I2
F16.7787667562161
sI38
F6.98824082413304
sI72
F17.9391116191711
sI46
F8.65279966988776
sI84
F1.85801368545196
sI52
F3.03748851968468
sI92
F4.94290461777074
sI93
F12.2477964598261
ssI80
(dp51
I2
F14.8356694118214
sI38
F5.62676654420176
sI72
F15.8327352787206
sI46
F8.0588108384029
sI84
F4.67700418361009
sI52
F4.70463733527364
sI92
F3.03927743798862
sI93
F10.1122732690684
ssI81
(dp52
I72
F0.154889595099279
ssI84
(dp53
I2
F18.5226753489951
sI3
F15.5956600742354
sI13
F11.0914798639502
sI15
F9.73026753143365
sI26
F20.8864181920654
sI37
F15.9481449750702
sI38
F7.68872484627139
sI39
F20.4912489017835
sI44
F2.84864363952102
sI45
F0.930875068217323
sI46
F10.0456672433203
sI47
F0.330056735798249
sI52
F2.39033852037053
sI55
F19.27296065188
sI57
F2.94005274291922
sI62
F15.3017628980041
sI67
F16.4971634786592
sI68
F17.0722673437741
sI69
F18.001808302142
sI72
F19.7210147124792
sI73
F19.6400586232912
sI74
F18.6766341461069
sI76
F12.8136884315574
sI77
F19.8989532740876
sI78
F17.355078362519
sI79
F1.85801368545196
sI80
F4.67700418361009
sI86
F19.7129293095592
sI88
F14.3486781889034
sI89
F18.8519227076216
sI92
F6.77495897647902
sI93
F14.0526484629278
sI98
F17.7437123502417
ssI85
(dp54
I13
F1.17633330140073
ssI86
(dp55
I2
F1.64134190753599
sI38
F19.3012314510989
sI72
F0.0312643364659312
sI46
F11.0037851811598
sI52
F20.488148921334
sI55
F0.635958566536213
sI84
F19.7129293095592
sI93
F5.71376896220664
ssI88
(dp56
I73
F5.97938876597481
sI84
F14.3486781889034
sI69
F3.66097104952236
sI46
F4.93325950050165
sI52
F15.5538373024986
ssI89
(dp57
I2
F7.44426393180017
sI69
F5.62820642196231
sI38
F21.9693515292004
sI72
F8.77880309119896
sI46
F8.90426431888901
sI84
F18.8519227076216
sI52
F20.5757186821716
sI92
F13.8282594395366
sI93
F9.56272458116584
ssI90
(dp58
I13
F2.63735820936562
ssI92
(dp59
I98
F12.4154307252622
sI3
F9.67081135208023
sI4
F0.126799923754566
sI38
F8.23946958515862
sI72
F13.0319252204767
sI73
F12.9594752263768
sI45
F6.71050946590421
sI13
F7.03404047235019
sI46
F5.31257916564315
sI79
F4.94290461777074
sI80
F3.03927743798862
sI84
F6.77495897647902
sI57
F4.71855022803752
sI55
F12.618408070217
sI2
F11.9373254278376
sI89
F13.8282594395366
sI26
F14.1420447163401
sI47
F6.65853544578616
sI52
F7.50910338728108
sI93
F7.31964781963753
sI53
F7.72580873446228
ssI93
(dp60
I2
F4.79269864527852
sI3
F4.71810812635976
sI9
F31.7641191210355
sI13
F7.55619251202906
sI15
F8.43819072387166
sI26
F6.83381142072769
sI37
F1.89714357641037
sI38
F13.9413353089448
sI44
F14.379523395025
sI45
F13.8786751988483
sI46
F6.43760504337832
sI47
F13.9077012943739
sI52
F14.7744081963979
sI53
F14.960010383025
sI55
F5.3491117284948
sI57
F11.6351669582945
sI62
F2.01223970834797
sI67
F2.47832477920296
sI69
F5.1339999825284
sI72
F5.72539765160039
sI73
F5.66006296520887
sI74
F4.86978736191705
sI75
F2.85501508977803
sI76
F2.09122114457625
sI77
F5.87936801526091
sI78
F8.07205861019873
sI79
F12.2477964598261
sI80
F10.1122732690684
sI84
F14.0526484629278
sI86
F5.71376896220664
sI89
F9.56272458116584
sI92
F7.31964781963753
sI98
F7.91959880074888
ssI96
(dp61
I56
F1.51653740453145
sI9
F4.58678251895811
ssI98
(dp62
I2
F6.10053908846644
sI38
F20.48516282975
sI72
F7.55145592209754
sI46
F7.70699136339725
sI84
F17.7437123502417
sI52
F19.3571455209828
sI92
F12.4154307252622
sI93
F7.91959880074888
ssI99
(dp63
I56
F2.0357355149515
sI9
F3.60467312251354
ss.(dp0
I0
S'Erfurt, Germany'
p1
sI1
S'Fremont, CA'
p2
sI2
S'Washington, DC'
p3
sI3
S'Atlanta, GA'
p4
sI4
S'Broomfield, CO'
p5
sI5
S'Munster, Germany'
p6
sI6
S'Kassel, Germany'
p7
sI7
S'Stuttgart, Germany'
p8
sI8
S'Herndon, VA'
p9
sI9
S'London, UnitedKingdom'
p10
sI10
S'Boise, ID'
p11
sI11
S'Vienna, Austria'
p12
sI12
S'Santa Clara, CA'
p13
sI13
S'Houston, TX'
p14
sI14
S'Ashburn, VA'
p15
sI15
S'San Antonio, TX'
p16
sI16
S'Manchester, MA'
p17
sI17
S'Newark, NJ'
p18
sI18
S'Manchester, UnitedKingdom'
p19
sI19
S'Everett, WA'
p20
sI20
S'Paris, France'
p21
sI21
S'Milan, Italy'
p22
sI22
S'Bonn, Germany'
p23
sI23
S'Bielefeld, Germany'
p24
sI24
S'Stockholm, Sweden'
p25
sI25
S'Palo Alto, CA'
p26
sI26
S'Boston, MA'
p27
sI27
S'Anaheim, CA'
p28
sI28
S'Lubeck, Germany'
p29
sI29
S'Tokyo, Japan'
p30
sI30
S'Dusseldorf, Germany'
p31
sI31
S'Hanover, Germany'
p32
sI32
S'Omaha, NE'
p33
sI33
S'Zurich, Switzerland'
p34
sI34
S'Brussels, Belgium'
p35
sI35
S'Ulm, Germany'
p36
sI36
S'Sunnyvale, CA'
p37
sI37
S'Detroit, MI'
p38
sI38
S'Seattle, WA'
p39
sI39
S'Honolulu, HI'
p40
sg2
I1
sI41
S'Cologne, Germany'
p41
sI42
S'Indianapolis, IN'
p42
sI43
S'Dortmund, Germany'
p43
sI44
S'Sacramento, CA'
p44
sI45
S'San Diego, CA'
p45
sI46
S'Dallas, TX'
p46
sI47
S'Tustin, CA'
p47
sI48
S'Pittsburgh, PA'
p48
sI49
S'Copenhagen, Denmark'
p49
sI50
S'Hong Kong'
p50
sg3
I2
sI52
S'San Jose, CA'
p51
sI53
S'San Francisco, CA'
p52
sg4
I3
sI55
S'Philadelphia, PA'
p53
sI56
S'Frankfurt, Germany'
p54
sg5
I4
sI58
S'Reston, VA'
p55
sg6
I5
sI60
S'Amsterdam, Netherlands'
p56
sI61
S'Strasburg, Germany'
p57
sI62
S'Cincinnati, OH'
p58
sI63
S'Prague, CzechRepublic'
p59
sI64
S'Portland, OR'
p60
sI65
S'Buffalo, NY'
p61
sI66
S'Mannheim, Germany'
p62
sI67
S'Cleveland, OH'
p63
sI68
S'Charlotte, NC'
p64
sI69
S'Raleigh, NC'
p65
sI70
S'Berlin, Germany'
p66
sI71
S'Princeton, NJ'
p67
sI72
S'New York, NY'
p68
sI73
S'Richmond, VA'
p69
sI74
S'Baltimore, MD'
p70
sI75
S'Minneapolis, MN'
p71
sI76
S'St. Louis, MO'
p72
sI77
S'Stamford, CT'
p73
sI78
S'Tampa, FL'
p74
sI79
S'Las Vegas, NV'
p75
sI80
S'Salt Lake City, UT'
p76
sI81
S'Garden City, NY'
p77
sI82
S'Konstanz, Germany'
p78
sg7
I6
sI84
S'Los Angeles, CA'
p79
sg8
I7
sI86
S'Weehawken, NJ'
p80
sI87
S'Tacoma, WA'
p81
sI88
S'Nashville, TN'
p82
sg55
I58
sI90
S'New Orleans, LA'
p83
sg10
I9
sI92
S'Denver, CO'
p84
sI93
S'Chicago, IL'
p85
sI94
S'Vienna, VA'
p86
sI95
S'Karlsruhe, Germany'
p87
sI96
S'Munich, Germany'
p88
sI97
S'Braunschweig, Germany'
p89
sI98
S'Orlando, FL'
p90
sI99
S'Hamburg, Germany'
p91
sg11
I10
sg12
I11
sg13
I12
sI89
S'Miami, FL'
p92
sg14
I13
sg15
I14
sg16
I15
sg17
I16
sg18
I17
sg26
I25
sg20
I19
sg21
I20
sg22
I21
sg23
I22
sI91
S'Leipzig, Germany'
p93
sI59
S'Wiesbaden, Germany'
p94
sg24
I23
sg25
I24
sg19
I18
sg27
I26
sg28
I27
sg29
I28
sg30
I29
sg31
I30
sg32
I31
sg33
I32
sg36
I35
sI40
S'Mainz, Germany'
p95
sg35
I34
sg37
I36
sg38
I37
sg39
I38
sg40
I39
sg95
I40
sg41
I41
sg42
I42
sg43
I43
sg93
I91
sg44
I44
sg45
I45
sg46
I46
sg47
I47
sg48
I48
sI51
S'Providence, RI'
p96
sg49
I49
sg50
I50
sg96
I51
sI54
S'Madrid, Spain'
p97
sg51
I52
sg52
I53
sg97
I54
sg53
I55
sg54
I56
sI57
S'Phoenix, AZ'
p98
sg98
I57
sg9
I8
sg94
I59
sg56
I60
sg57
I61
sg58
I62
sg59
I63
sg60
I64
sg61
I65
sg62
I66
sg63
I67
sg64
I68
sg65
I69
sg66
I70
sg67
I71
sg68
I72
sg34
I33
sg70
I74
sg69
I73
sg72
I76
sg73
I77
sg1
I0
sg75
I79
sg76
I80
sg77
I81
sg78
I82
sS'Duisburg, Germany'
p99
I83
sg79
I84
sS'Austin, TX'
p100
I85
sg80
I86
sg81
I87
sg82
I88
sg92
I89
sg71
I75
sg83
I90
sg74
I78
sg84
I92
sg85
I93
sg86
I94
sI83
g99
sg87
I95
sg88
I96
sg91
I99
sg89
I97
sg90
I98
sI85
g100
s.(dp0
I2
(lp1
I1668
aI6939
aI4637
aI10910
aI4513
aI6461
aI16631
aI209
aI4565
aI7911
aI3561
aI7018
aI701
asI3
(lp2
I1668
aI5511
aI12050
aI10910
aI701
asI68
(lp3
I4323
asI25
(lp4
I4565
aI3549
aI4725
aI7543
asI38
(lp5
I1
aI6453
aI209
aI1239
aI11608
aI101
aI7018
aI701
asI72
(lp6
I1
aI1668
aI5511
aI2828
aI1299
aI8220
aI10910
aI174
aI15412
aI6461
aI209
aI1239
aI3549
aI2914
aI7911
aI3561
aI7018
aI701
aI2548
aI3320
aI1785
asI9
(lp7
I1668
aI5511
aI4589
aI1299
aI4513
aI6453
aI6461
aI702
aI1239
aI3549
aI2914
aI3320
asI14
(lp8
I6453
asI34
(lp9
I4589
asI46
(lp10
I1668
aI12050
aI4637
aI209
aI1239
aI3549
aI2914
aI3561
aI7018
aI701
aI2548
aI6395
asI60
(lp11
I1299
aI6461
aI1239
aI3549
aI3300
aI3561
asI84
(lp12
I1
aI12050
aI1299
aI4637
aI6453
aI16631
aI209
aI1239
aI3549
aI2914
aI7018
aI701
asI53
(lp13
I10910
aI15412
aI6395
asI89
(lp14
I12050
asI56
(lp15
I1668
aI7176
aI4589
aI1299
aI5669
aI6461
aI13129
aI3549
aI2914
aI3561
asI20
(lp16
I5511
aI3561
asI26
(lp17
I12050
asI92
(lp18
I1
aI209
asI93
(lp19
I1
aI1668
aI5511
aI2828
aI12050
aI10910
aI6461
aI1239
aI2914
aI3561
aI7018
aI701
asI52
(lp20
I5511
aI2828
aI12050
aI1299
aI6939
aI4637
aI174
aI6453
aI2497
aI209
aI1239
aI2914
aI7911
aI3561
aI7018
aI5650
aI701
aI7543
aI3967
as.