(dp0
I3
(dp1
I47
F1.31100708475761
ssI4
(dp2
I35
F0.0914840145537715
sI22
F2.52266827341936
ssI7
(dp3
I56
F4.59633532126195
sI35
F4.3323824943394
sI20
F5.6298814446364
ssI9
(dp4
I88
F1.88626186156254
sI104
F0.487895905031735
sI47
F1.32781843775159
sI63
F3.65508976734151
ssI13
(dp5
I80
F1.88532911009081
sI72
F6.31536032045267
sI27
F1.71246693397065
sI89
F27.8377559786444
ssI14
(dp6
I97
F54.4405827762869
sI39
F10.1835162102325
ssI16
(dp7
I82
F2.32778100600558
sI54
F1.85297953379378
ssI20
(dp8
I103
F2.63735820936562
sI63
F1.79734274874247
sI62
F10.4452660618792
sI7
F5.6298814446364
ssI21
(dp9
I89
F1.75053383532763
sI35
F0.147031412914132
sI108
F4.56760563530978
sI22
F2.41111554069603
ssI22
(dp10
I35
F2.45550624108131
sI4
F2.52266827341936
sI101
F9.89025021987845
sI75
F1.95164365310374
sI21
F2.41111554069603
sI63
F10.5363852727275
ssI24
(dp11
I80
F29.5624838930312
sI73
F20.4155316282769
sI66
F1.9567630952749
sI75
F0.57652880820605
sI89
F0.0710684956979026
ssI25
(dp12
I89
F0.177171734431241
sI44
F0.17273492226164
ssI27
(dp13
I76
F2.34012884016252
sI13
F1.71246693397065
ssI28
(dp14
I68
F12.915469710535
sI54
F64.8625377514723
sI70
F68.2098789197584
sI39
F26.1900160757687
ssI29
(dp15
I66
F0.59274692421279
ssI32
(dp16
I71
F0.263148241311664
ssI33
(dp17
I67
F0.0405464882837169
sI70
F0.124477546789977
sI71
F0.261255074734326
sI73
F0.104525369294046
sI49
F4.78644326108868
sI35
F19.452983796694
sI54
F5.65399697685604
sI60
F0.694034461214314
sI62
F3.43877328018719
sI63
F11.7890826854885
ssI34
(dp18
I89
F1.52818775993091
sI83
F5.8162753246858
ssI35
(dp19
I33
F19.452983796694
sI4
F0.0914840145537715
sI65
F1.46697102254423
sI7
F4.3323824943394
sI109
F0.0421768352977771
sI21
F0.147031412914132
sI22
F2.45550624108131
sI91
F0.321483225454254
ssI39
(dp20
I68
F14.1254042821176
sI70
F42.030205069196
sI14
F10.1835162102325
sI113
F5.82920134598124
sI114
F38.6332013684815
sI54
F38.8771697463987
sI28
F26.1900160757687
sI94
F1.82749056003722
ssI43
(dp21
I75
F1.2351689858278
ssI44
(dp22
I89
F0.348066943672593
sI25
F0.17273492226164
ssI47
(dp23
I88
F2.83310227313517
sI9
F1.32781843775159
sI3
F1.31100708475761
ssI49
(dp24
I33
F4.78644326108868
sI63
F7.85325206468035
ssI54
(dp25
I33
F5.65399697685604
sI39
F38.8771697463987
sI108
F13.9413353089448
sI16
F1.85297953379378
sI82
F1.1632071890148
sI28
F64.8625377514723
sI94
F40.190875334387
ssI55
(dp26
I108
F0.994849604807387
ssI56
(dp27
I101
F0.332674770228182
sI7
F4.59633532126195
ssI57
(dp28
I75
F1.26325771950583
ssI60
(dp29
I33
F0.694034461214314
ssI61
(dp30
I83
F0.125030669155966
ssI62
(dp31
I97
F0.930875068217323
sI20
F10.4452660618792
sI77
F0.579513867850327
sI33
F3.43877328018719
ssI63
(dp32
I33
F11.7890826854885
sI98
F1.45877351431596
sI9
F3.65508976734151
sI108
F6.43760504337832
sI49
F7.85325206468035
sI20
F1.79734274874247
sI22
F10.5363852727275
ssI65
(dp33
I89
F2.53158773254134
sI35
F1.46697102254423
ssI66
(dp34
I24
F1.9567630952749
sI89
F2.01525033960335
sI29
F0.59274692421279
ssI67
(dp35
I73
F0.072797856770376
sI33
F0.0405464882837169
ssI68
(dp36
I28
F12.915469710535
sI70
F55.8074135130895
sI39
F14.1254042821176
ssI69
(dp37
I108
F1.03360021788674
ssI70
(dp38
I97
F2.39033852037053
sI68
F55.8074135130895
sI33
F0.124477546789977
sI73
F0.0519303541236295
sI106
F7.50910338728108
sI71
F0.381420811600469
sI108
F14.7744081963979
sI114
F59.8122862074532
sI82
F4.56585112164626
sI39
F42.030205069196
sI28
F68.2098789197584
sI94
F43.5230646482607
ssI71
(dp39
I96
F0.123627574278185
sI73
F0.345502903701343
sI32
F0.263148241311664
sI70
F0.381420811600469
sI33
F0.261255074734326
ssI72
(dp40
I80
F7.26851105212116
sI13
F6.31536032045267
ssI73
(dp41
I97
F2.43224169177419
sI67
F0.072797856770376
sI33
F0.104525369294046
sI70
F0.0519303541236295
sI71
F0.345502903701343
sI24
F20.4155316282769
ssI75
(dp42
I24
F0.57652880820605
sI57
F1.26325771950583
sI43
F1.2351689858278
sI22
F1.95164365310374
sI87
F0.282703724413204
ssI76
(dp43
I80
F1.55963394775673
sI27
F2.34012884016252
ssI77
(dp44
I97
F0.358150963318345
sI62
F0.579513867850327
ssI78
(dp45
I85
F1.00169656442533
ssI80
(dp46
I72
F7.26851105212116
sI24
F29.5624838930312
sI76
F1.55963394775673
sI13
F1.88532911009081
ssI82
(dp47
I16
F2.32778100600558
sI100
F0.840684393371876
sI54
F1.1632071890148
sI70
F4.56585112164626
ssI83
(dp48
I34
F5.8162753246858
sI108
F1.02866164399867
sI61
F0.125030669155966
sI102
F0.77498250927329
ssI84
(dp49
I108
F1.62814245299138
ssI85
(dp50
I89
F3.24743960868072
sI108
F2.47832477920296
sI78
F1.00169656442533
ssI87
(dp51
I75
F0.282703724413204
ssI88
(dp52
I9
F1.88626186156254
sI108
F2.09610867496233
sI47
F2.83310227313517
ssI89
(dp53
I65
F2.53158773254134
sI34
F1.52818775993091
sI66
F2.01525033960335
sI44
F0.348066943672593
sI108
F5.72539765160039
sI13
F27.8377559786444
sI21
F1.75053383532763
sI24
F0.0710684956979026
sI25
F0.177171734431241
sI85
F3.24743960868072
ssI90
(dp54
I108
F0.15123430568562
ssI91
(dp55
I35
F0.321483225454254
ssI94
(dp56
I54
F40.190875334387
sI70
F43.5230646482607
sI39
F1.82749056003722
ssI96
(dp57
I71
F0.123627574278185
ssI97
(dp58
I73
F2.43224169177419
sI14
F54.4405827762869
sI70
F2.39033852037053
sI77
F0.358150963318345
sI62
F0.930875068217323
ssI98
(dp59
I63
F1.45877351431596
ssI100
(dp60
I82
F0.840684393371876
ssI101
(dp61
I56
F0.332674770228182
sI22
F9.89025021987845
ssI102
(dp62
I83
F0.77498250927329
ssI103
(dp63
I20
F2.63735820936562
ssI104
(dp64
I9
F0.487895905031735
ssI106
(dp65
I107
F0.0837633620878941
sI108
F7.31964781963753
sI70
F7.50910338728108
ssI107
(dp66
I106
F0.0837633620878941
ssI108
(dp67
I69
F1.03360021788674
sI70
F14.7744081963979
sI106
F7.31964781963753
sI83
F1.02866164399867
sI84
F1.62814245299138
sI21
F4.56760563530978
sI54
F13.9413353089448
sI55
F0.994849604807387
sI88
F2.09610867496233
sI89
F5.72539765160039
sI90
F0.15123430568562
sI85
F2.47832477920296
sI63
F6.43760504337832
ssI109
(dp68
I35
F0.0421768352977771
ssI113
(dp69
I39
F5.82920134598124
ssI114
(dp70
I70
F59.8122862074532
sI39
F38.6332013684815
ss.(dp0
I0
S'Vancouver, Canada'
p1
sI1
S'Milwaukee, WI'
p2
sg1
I0
sI3
S'Sioux Falls, SD'
p3
sI4
S'Alexandria, VA'
p4
sg2
I1
sI6
S'Washington, DC'
p5
sI7
S'Atlanta, GA'
p6
sI8
S'Hayward, CA'
p7
sI9
S'Kansas City, MO'
p8
sI10
S'Kassel, Germany'
p9
sI11
S'Meschede, Germany'
p10
sI12
S'Reston, VA'
p11
sI2
S'Montreal, Canada'
p12
sI14
S'Taipei, Taiwan'
p13
sI15
S'Duisburg, Germany'
p14
sg12
I2
sI17
S'Orange County, CA'
p15
sI18
S'Vienna, Austria'
p16
sI19
S'Santa Clara, CA'
p17
sI20
S'Houston, TX'
p18
sI21
S'Ashburn, VA'
p19
sI22
S'Sterling, VA'
p20
sI23
S'Relay, MD'
p21
sg3
I3
sI25
S'Westbury, NY'
p22
sI26
S'Everett, WA'
p23
sI27
S'Paris, France'
p24
sI28
S'Singapore'
p25
sI29
S'Syracuse, NY'
p26
sI30
S'Bonn, Germany'
p27
sI5
S'Offenburg, Germany'
p28
sI32
S'San Ramon, CA'
p29
sI33
S'Palo Alto, CA'
p30
sI34
S'Boston, MA'
p31
sI35
S'McLean, VA'
p32
sg4
I4
sg28
I5
sI38
S'Mainz, Germany'
p33
sI39
S'Tokyo, Japan'
p34
sI40
S'Geneva, Switzerland'
p35
sI41
S'Norfolk, VA'
p36
sI42
S'Zurich, Switzerland'
p37
sI43
S'State College, PA'
p38
sI44
S'Smithtown, NY'
p39
sI45
S'Dusseldorf, Germany'
p40
sI46
S'Hanover, Germany'
p41
sI47
S'Omaha, NE'
p42
sI48
S'Ulm, Germany'
p43
sI49
S'Orem, UT'
p44
sI50
S'Krefeld, Germany'
p45
sg5
I6
sI52
S'Sunnyvale, CA'
p46
sI53
S'Detroit, MI'
p47
sg6
I7
sI55
S'Champaign, IL'
p48
sI56
S'Boca Raton, FL'
p49
sI57
S'Mainesburg, PA'
p50
sI58
S'Cologne, Germany'
p51
sI59
S'Dortmund, Germany'
p52
sI60
S'Sacramento, CA'
p53
sI61
S'Burlington, MI'
p54
sI62
S'San Diego, CA'
p55
sg7
I8
sI64
S'Burbank, CA'
p56
sI65
S'Pittsburgh, PA'
p57
sI66
S'Rochester, NY'
p58
sI67
S'Mountain View, CA'
p59
sI68
S'Hong Kong'
p60
sI69
S'Peoria, IL'
p61
sI70
S'San Jose, CA'
p62
sI71
S'San Francisco, CA'
p63
sI72
S'Madrid, Spain'
p64
sg8
I9
sI74
S'Toronto, Canada'
p65
sI75
S'Philadelphia, PA'
p66
sI76
S'Frankfurt, Germany'
p67
sI77
S'Irvine, CA'
p68
sI78
S'Columbus, OH'
p69
sI13
S'London, UnitedKingdom'
p70
sI80
S'Amsterdam, Netherlands'
p71
sI81
S'Prague, CzechRepublic'
p72
sI82
S'Portland, OR'
p73
sg9
I10
sI84
S'Ann Arbor, MI'
p74
sS'Stuttgart, Germany'
p75
I51
sI86
S'Berlin, Germany'
p76
sI87
S'Princeton, NJ'
p77
sI88
S'St Louis, MO'
p78
sS'Herndon, VA'
p79
I79
sI90
S'Downers Grove, IL'
p80
sg70
I13
sI92
S'Aachen, Germany'
p81
sI93
S'Erfurt, Germany'
p82
sg13
I14
sI95
S'Konstanz, Germany'
p83
sI96
S'Oakland, CA'
p84
sI16
S'Spokane, WA'
p85
sI98
S'Austin, TX'
p86
sg36
I41
sg85
I16
sI101
S'Miami, FL'
p87
sI102
S'Livonia, MI'
p88
sI103
S'New Orleans, LA'
p89
sI104
S'Topeka, KS'
p90
sg15
I17
sI106
S'Denver, CO'
p91
sI107
S'Englewood, CO'
p92
sI108
S'Chicago, IL'
p93
sg16
I18
sI110
S'Karlsruhe, Germany'
p94
sI111
S'Munich, Germany'
p95
sI112
S'Braunschweig, Germany'
p96
sg17
I19
sI114
S'Sydney, Australia'
p97
sI89
S'New York, NY'
p98
sI105
S'Leipzig, Germany'
p99
sg18
I20
sg19
I21
sg20
I22
sg21
I23
sI109
S'Vienna, VA'
p100
sS'Newark, NJ'
p101
I24
sI24
g101
sg22
I25
sg23
I26
sg24
I27
sg25
I28
sg26
I29
sg27
I30
sI91
S'Baltimore, MD'
p102
sS'Bielefeld, Germany'
p103
I31
sg29
I32
sg30
I33
sg31
I34
sg32
I35
sS'Anaheim, CA'
p104
I36
sg33
I38
sI36
g104
sg34
I39
sg35
I40
sI37
S'Mannheim, Germany'
p105
sg38
I43
sg39
I44
sg40
I45
sg41
I46
sg42
I47
sg37
I42
sI99
S'Tacoma, WA'
p106
sI113
S'Seoul, SouthKorea'
p107
sg44
I49
sg45
I50
sg46
I52
sg47
I53
sS'Seattle, WA'
p108
I54
sI94
S'Osaka, Japan'
p109
sg10
I11
sg49
I56
sg56
I64
sg51
I58
sg52
I59
sg99
I105
sg53
I60
sg54
I61
sg55
I62
sS'Dallas, TX'
p110
I63
sg50
I57
sg57
I65
sI51
g75
sg59
I67
sg60
I68
sg84
I96
sI54
g108
sg62
I70
sg63
I71
sg64
I72
sS'Milpitas, CA'
p111
I73
sg65
I74
sg66
I75
sg67
I76
sg98
I89
sg77
I87
sg69
I78
sg11
I12
sI97
S'Los Angeles, CA'
p112
sg71
I80
sg72
I81
sg73
I82
sg109
I94
sg58
I66
sg105
I37
sI63
g110
sg74
I84
sS'Cleveland, OH'
p113
I85
sg76
I86
sg68
I77
sg78
I88
sS'Springfield, MI'
p114
I83
sg43
I48
sg102
I91
sg61
I69
sg81
I92
sg80
I90
sI31
g103
sg82
I93
sI73
g111
sg83
I95
sg14
I15
sg112
I97
sg86
I98
sI100
S'Eugene, OR'
p115
sg106
I99
sg115
I100
sg87
I101
sg88
I102
sg89
I103
sg90
I104
sI79
g79
sg91
I106
sg92
I107
sg93
I108
sg100
I109
sI83
g114
sg94
I110
sg48
I55
sg95
I111
sg97
I114
sg96
I112
sg107
I113
sI85
g113
s.(dp0
I7
(lp1
I10910
asI9
(lp2
I1239
asI13
(lp3
I5400
aI3356
aI1239
aI3549
aI1299
asI20
(lp4
I10910
asI21
(lp5
I1
aI5511
aI4637
aI6453
aI1239
aI3549
asI22
(lp6
I2548
aI3320
asI24
(lp7
I209
asI27
(lp8
I1299
asI28
(lp9
I5400
asI33
(lp10
I1
aI5511
aI5650
aI6939
aI4637
aI10910
aI6453
aI2497
aI1221
aI16631
aI1784
aI209
aI3549
aI4323
aI3561
aI12050
aI6461
asI34
(lp11
I10910
aI174
asI35
(lp12
I2828
aI5650
aI5400
aI6939
aI7018
asI39
(lp13
I7176
aI10910
asI54
(lp14
I1
aI6539
aI10910
aI6453
aI701
aI1239
aI11608
aI3549
aI101
aI3561
aI7018
aI6461
asI62
(lp15
I10910
asI63
(lp16
I1
aI3356
aI10910
aI174
aI701
aI209
aI1239
aI3561
aI7018
aI6461
aI1299
asI70
(lp17
I2828
aI5400
aI3356
aI174
aI3257
aI6467
aI1239
aI3300
asI71
(lp18
I10910
aI16631
asI73
(lp19
I10910
asI75
(lp20
I10910
asI76
(lp21
I3356
aI8220
aI1299
asI80
(lp22
I1239
aI3549
asI88
(lp23
I701
asI89
(lp24
I1
aI6539
aI6939
aI3356
aI10910
aI2497
aI1239
aI7911
aI3561
aI6461
aI1299
aI3320
asI97
(lp25
I1
aI3356
aI10910
aI6453
aI16631
aI1239
aI7018
asI101
(lp26
I10910
aI16631
aI209
aI1239
asI106
(lp27
I10910
asI108
(lp28
I1
aI6539
aI2828
aI5650
aI5400
aI6939
aI3356
aI10910
aI4513
aI174
aI6453
aI701
aI16631
aI209
aI4565
aI1239
aI3549
aI4323
aI7911
aI7018
aI12050
aI6461
aI2548
aI6395
as.