(dp0
I0
(dp1
I5
F60.6239067475396
ssI1
(dp2
I5
F67.3276489498963
sI7
F2.58208058718034
ssI3
(dp3
I9
F35.9741029594949
sI6
F0.00555625582655084
sI7
F3.07472103722903
ssI5
(dp4
I0
F60.6239067475396
sI8
F58.7267487954552
sI11
F66.7970900122809
sI1
F67.3276489498963
sI7
F64.7455684939786
ssI6
(dp5
I9
F35.978288463544
sI3
F0.00555625582655084
ssI7
(dp6
I1
F2.58208058718034
sI3
F3.07472103722903
sI5
F64.7455684939786
ssI8
(dp7
I11
F8.6982009041152
sI5
F58.7267487954552
ssI9
(dp8
I3
F35.9741029594949
sI6
F35.978288463544
ssI11
(dp9
I8
F8.6982009041152
sI5
F66.7970900122809
ss.(dp0
I0
S'Ahmedabad, IN'
p1
sI1
S'Madras, IN'
p2
sI2
S'Stockton, CA'
p3
sI3
S'Mumbai, IN'
p4
sI4
S'Newark, NJ'
p5
sI5
S'New York, NY'
p6
sI6
S'Bombay, IN'
p7
sI7
S'Hyderabad, IN'
p8
sI8
S'Delhi, IN'
p9
sI9
S'London, UnitedKingdom'
p10
sI10
S'Pennsauken, NJ'
p11
sI11
S'Bangalore, IN'
p12
sg5
I4
sg6
I5
sg11
I10
sg1
I0
sg3
I2
sg9
I8
sg8
I7
sg10
I9
sg12
I11
sg2
I1
sg4
I3
sg7
I6
s.(dp0
I9
(lp1
I5511
aI3561
asI2
(lp2
I6453
aI1239
asI10
(lp3
I1239
asI4
(lp4
I6453
asI5
(lp5
I3549
aI6453
aI4637
as.