(dp0
I1
(dp1
I22
I1
ssI2
(dp2
I32
I1
ssI3
(dp3
I32
I1
sI29
I1
sI7
I1
ssI4
(dp4
I32
I1
sI35
I1
sI29
I1
sI22
I1
sI31
I1
ssI5
(dp5
I32
I1
sI41
I1
sI19
I1
sI44
I1
sI29
I1
ssI6
(dp6
I32
I1
sI19
I1
sI29
I1
ssI7
(dp7
I3
I1
ssI8
(dp8
I34
I1
sI20
I1
sI29
I1
sI31
I1
ssI10
(dp9
I32
I1
sI17
I1
sI29
I1
ssI11
(dp10
I12
I1
sI29
I1
sI31
I1
ssI12
(dp11
I11
I1
sI37
I1
sI38
I1
sI39
I1
sI43
I1
sI16
I1
sI21
I1
sI22
I1
sI23
I1
sI27
I1
sI29
I1
sI31
I1
ssI13
(dp12
I32
I1
ssI14
(dp13
I32
I1
sI42
I1
sI29
I1
ssI15
(dp14
I34
I1
ssI16
(dp15
I12
I1
sI29
I1
sI38
I1
sI31
I1
ssI17
(dp16
I10
I1
ssI18
(dp17
I43
I1
sI35
I1
sI29
I1
ssI19
(dp18
I5
I1
sI6
I1
ssI20
(dp19
I8
I1
ssI21
(dp20
I12
I1
sI29
I1
sI38
I1
sI31
I1
ssI22
(dp21
I1
I1
sI4
I1
sI29
I1
sI12
I1
sI31
I1
ssI23
(dp22
I12
I1
ssI24
(dp23
I34
I1
ssI26
(dp24
I29
I1
sI31
I1
ssI27
(dp25
I12
I1
sI29
I1
sI31
I1
ssI28
(dp26
I32
I1
sI41
I1
sI29
I1
ssI29
(dp27
I3
I1
sI4
I1
sI5
I1
sI6
I1
sI8
I1
sI10
I1
sI11
I1
sI12
I1
sI14
I1
sI16
I1
sI18
I1
sI21
I1
sI22
I1
sI26
I1
sI27
I1
sI28
I1
sI30
I1
sI31
I1
sI32
I1
sI33
I1
sI35
I1
sI37
I1
sI38
I1
sI39
I1
sI40
I1
sI41
I1
sI43
I1
sI44
I1
ssI30
(dp28
I32
I1
sI29
I1
ssI31
(dp29
I32
I1
sI35
I1
sI4
I1
sI37
I1
sI38
I1
sI39
I1
sI8
I1
sI43
I1
sI12
I1
sI16
I1
sI11
I1
sI21
I1
sI22
I1
sI26
I1
sI27
I1
sI29
I1
ssI32
(dp30
I33
I1
sI2
I1
sI35
I1
sI4
I1
sI5
I1
sI6
I1
sI40
I1
sI41
I1
sI10
I1
sI44
I1
sI13
I1
sI14
I1
sI3
I1
sI28
I1
sI29
I1
sI30
I1
sI31
I1
ssI33
(dp31
I32
I1
sI29
I1
ssI34
(dp32
I8
I1
sI24
I1
sI15
I1
ssI35
(dp33
I32
I1
sI18
I1
sI4
I1
sI29
I1
sI31
I1
ssI37
(dp34
I12
I1
sI29
I1
sI31
I1
ssI38
(dp35
I16
I1
sI31
I1
sI12
I1
sI21
I1
sI29
I1
ssI39
(dp36
I12
I1
sI29
I1
sI31
I1
ssI40
(dp37
I32
I1
sI29
I1
ssI41
(dp38
I32
I1
sI28
I1
sI5
I1
sI29
I1
ssI42
(dp39
I14
I1
ssI43
(dp40
I18
I1
sI12
I1
sI29
I1
sI31
I1
ssI44
(dp41
I32
I1
sI5
I1
sI29
I1
ss.(dp0
I0
S'Carrollton, TX'
p1
sI1
S'Malmo, Sweden'
p2
sI2
S'Essen, Germany'
p3
sI3
S'Nuremberg, Germany'
p4
sI4
S'Copenhagen, Denmark'
p5
sI5
S'Berlin, Germany'
p6
sI6
S'Offenbach, Germany'
p7
sI7
S'xWUE, Germany'
p8
sg4
I3
sI9
S'Vienna, VA'
p9
sI10
S'Cologne, Germany'
p10
sI11
S'Oslo, Norway'
p11
sI12
S'Paris, France'
p12
sI13
S'Dortmund, Germany'
p13
sI14
S'Darmstadt, Germany'
p14
sI15
S'Dallas, TX'
p15
sI16
S'Milan, Italy'
p16
sI17
S'Bonn, Germany'
p17
sI18
S'Antwerp, Belgium'
p18
sI19
S'Dresden, Germany'
p19
sI20
S'Washington, DC'
p20
sI21
S'Basel, Switzerland'
p21
sI22
S'Stockholm, Sweden'
p22
sI23
S'Madrid, Spain'
p23
sI24
S'San Jose, CA'
p24
sI25
S'San Francisco, CA'
p25
sI26
S'Rome, Italy'
p26
sI27
S'Barcelona, Spain'
p27
sI28
S'Stuttgart, Germany'
p28
sI29
S'Frankfurt, Germany'
p29
sI30
S'Mainz, Germany'
p30
sI31
S'London, UnitedKingdom'
p31
sI32
S'Dusseldorf, Germany'
p32
sI33
S'Hanover, Germany'
p33
sI34
S'Chicago, IL'
p34
sI35
S'Amsterdam, Netherlands'
p35
sI36
S'Ashburn, VA'
p36
sI37
S'Vienna, Austria'
p37
sI38
S'Zurich, Switzerland'
p38
sI39
S'Prague, CzechRepublic'
p39
sI40
S'Karlsruhe, Germany'
p40
sI41
S'Munich, Germany'
p41
sI42
S'Mannheim, Germany'
p42
sI43
S'Brussels, Belgium'
p43
sI44
S'Hamburg, Germany'
p44
sg18
I18
sI8
S'New York, NY'
p45
sg20
I20
sg26
I26
sg28
I28
sg31
I31
sg37
I37
sg36
I36
sg5
I4
sg12
I12
sg16
I16
sg17
I17
sg21
I21
sg22
I22
sg30
I30
sg32
I32
sg33
I33
sg38
I38
sg43
I43
sg1
I0
sg3
I2
sg8
I7
sg10
I10
sg13
I13
sg15
I15
sg7
I6
sg19
I19
sg24
I24
sg25
I25
sg23
I23
sg29
I29
sg35
I35
sg39
I39
sg42
I42
sg6
I5
sg45
I8
sg11
I11
sg14
I14
sg2
I1
sg27
I27
sg34
I34
sg9
I9
sg40
I40
sg41
I41
sg44
I44
s.(dp0
I34
(lp1
I1
aI16631
asI35
(lp2
I3561
aI1299
aI702
asI38
(lp3
I1299
asI8
(lp4
I4323
aI701
asI12
(lp5
I3561
aI1299
asI15
(lp6
I4323
asI20
(lp7
I1
aI7911
aI16631
aI6395
asI24
(lp8
I1
aI2914
aI209
asI29
(lp9
I3561
aI1299
aI3549
asI31
(lp10
I1239
aI5400
aI3549
aI702
as.