(dp0
I0
(dp1
I111
F2.18487687574793
ssI1
(dp2
I91
F0.111113754997158
ssI2
(dp3
I76
F1.90462597620502
ssI3
(dp4
I140
F0.679271467429091
ssI6
(dp5
I140
F0.587529818506004
ssI8
(dp6
I113
F0.286277675650335
ssI9
(dp7
I126
F1.85801368545196
ssI10
(dp8
I113
F0.280723638773994
ssI12
(dp9
I113
F0.226787633761962
ssI13
(dp10
I134
F2.27328418572432
sI113
F1.62733364571067
sI137
F0.0416012278374601
sI107
F1.8616231104935
sI14
F4.38018878263173
sI111
F5.72986715797861
sI48
F0.0791793285538616
sI145
F1.99566142506829
sI114
F1.49060940405506
sI116
F0.281322687176047
sI54
F1.21989824411529
sI26
F2.50061812014333
sI91
F1.00741082347545
sI125
F1.15209081294177
sI30
F0.225316255475169
sI31
F0.354150688737922
ssI14
(dp11
I132
F1.72156084371978
sI44
F1.63715020018745
sI106
F1.83053301410572
sI107
F2.87054830888084
sI76
F5.75137875158028
sI13
F4.38018878263173
sI147
F3.23558877686677
sI118
F0.115154345936281
sI59
F1.11100313105052
sI126
F15.5956600742354
ssI15
(dp12
I57
F1.32781843775159
sI111
F1.88626186156254
ssI16
(dp13
I122
F1.53362965140341
sI147
F1.47087066432708
ssI17
(dp14
I91
F0.759304494750295
ssI18
(dp15
I113
F0.41990372425242
ssI20
(dp16
I85
F0.123627574278185
ssI21
(dp17
I66
F1.85297953379378
ssI26
(dp18
I13
F2.50061812014333
ssI27
(dp19
I119
F0.37315318644516
ssI28
(dp20
I140
F1.0662323550404
ssI29
(dp21
I128
F1.17633330140073
sI135
F2.63735820936562
sI76
F1.79734274874247
sI47
F12.900435070856
ssI30
(dp22
I13
F0.225316255475169
ssI31
(dp23
I13
F0.354150688737922
ssI32
(dp24
I128
F0.594653354898354
sI76
F2.0304558691511
ssI33
(dp25
I119
F0.291354511157101
ssI35
(dp26
I113
F0.0710684956979026
ssI37
(dp27
I76
F1.53243516305084
ssI39
(dp28
I124
F4.72962062541796
sI85
F0.352097076827034
ssI40
(dp29
I113
F1.57033497150171
ssI41
(dp30
I113
F0.378649812567361
ssI44
(dp31
I14
F1.63715020018745
ssI46
(dp32
I85
F0.261255074734326
ssI47
(dp33
I29
F12.900435070856
ssI48
(dp34
I13
F0.0791793285538616
ssI49
(dp35
I91
F0.23977172330055
ssI50
(dp36
I126
F0.268083922965192
ssI51
(dp37
I147
F1.56177986306202
ssI52
(dp38
I111
F1.93749673795893
ssI53
(dp39
I64
F0.158516609505823
sI140
F1.7403911963495
ssI54
(dp40
I13
F1.21989824411529
ssI55
(dp41
I113
F0.204904368580868
ssI56
(dp42
I76
F0.268573287761392
ssI57
(dp43
I120
F2.33448239760323
sI111
F2.83310227313517
sI15
F1.32781843775159
ssI58
(dp44
I126
F0.0317327871932893
ssI59
(dp45
I14
F1.11100313105052
ssI61
(dp46
I111
F2.34574524133461
ssI64
(dp47
I98
F1.86990710134096
sI102
F1.64437032523539
sI104
F1.51419285743303
sI105
F0.754422048450058
sI140
F1.89714357641037
sI66
F15.5239806328732
sI111
F3.65662272693522
sI53
F0.158516609505823
sI91
F3.57972619331095
ssI65
(dp48
I136
F0.511787808961864
ssI66
(dp49
I64
F15.5239806328732
sI100
F1.1632071890148
sI140
F13.9413353089448
sI111
F13.8269386587034
sI21
F1.85297953379378
sI119
F19.9722092440453
sI85
F5.46425584185052
ssI68
(dp50
I140
F0.994849604807387
ssI69
(dp51
I85
F19.1770294420487
ssI70
(dp52
I119
F0.140710746447411
ssI71
(dp53
I113
F0.197134777062409
ssI72
(dp54
I140
F1.31580076013171
ssI73
(dp55
I126
F1.83959383864949
ssI74
(dp56
I126
F2.84864363952102
ssI75
(dp57
I94
F2.3912331017529
sI126
F0.930875068217323
sI111
F12.5103188325446
ssI76
(dp58
I128
F1.45877351431596
sI32
F2.0304558691511
sI2
F1.90462597620502
sI37
F1.53243516305084
sI136
F5.31257916564315
sI140
F6.43760504337832
sI14
F5.75137875158028
sI111
F4.38030416636665
sI94
F7.13022347450063
sI56
F0.268573287761392
sI29
F1.79734274874247
sI126
F10.0456672433203
ssI77
(dp59
I91
F0.0416162969898546
ssI78
(dp60
I126
F3.109632808196285
ssI79
(dp61
I91
F2.077074442163
ssI80
(dp62
I113
F2.01525033960335
ssI82
(dp63
I119
F0.331362797725137
ssI84
(dp64
I85
F0.381420811600469
sI126
F2.39033852037053
ssI85
(dp65
I66
F5.46425584185052
sI69
F19.1770294420487
sI39
F0.352097076827034
sI136
F7.72580873446228
sI140
F14.960010383025
sI46
F0.261255074734326
sI111
F14.0439149622854
sI20
F0.123627574278185
sI84
F0.381420811600469
sI92
F3.14734273965226
sI126
F2.76945681575568
ssI86
(dp66
I140
F1.22812492845315
ssI87
(dp67
I147
F1.20498594835168
ssI88
(dp68
I140
F0.127570236677293
ssI89
(dp69
I94
F2.6505741832629
ssI91
(dp70
I64
F3.57972619331095
sI1
F0.111113754997158
sI17
F0.759304494750295
sI113
F0.620583384672223
sI13
F1.00741082347545
sI77
F0.0416162969898546
sI79
F2.077074442163
sI49
F0.23977172330055
ssI92
(dp71
I85
F3.14734273965226
ssI93
(dp72
I111
F1.95811189002412
ssI94
(dp73
I89
F2.6505741832629
sI75
F2.3912331017529
sI76
F7.13022347450063
sI111
F10.1772021912975
ssI96
(dp74
I113
F0.802792522556184
ssI98
(dp75
I64
F1.86990710134096
sI140
F2.01223970834797
ssI99
(dp76
I140
F2.78909697835556
ssI100
(dp77
I66
F1.1632071890148
ssI101
(dp78
I113
F2.35086963279073
ssI102
(dp79
I64
F1.64437032523539
sI140
F1.81259705674727
ssI104
(dp80
I64
F1.51419285743303
sI140
F1.86129440025357
ssI105
(dp81
I64
F0.754422048450058
sI140
F2.47832477920296
ssI106
(dp82
I14
F1.83053301410572
ssI107
(dp83
I13
F1.8616231104935
sI14
F2.87054830888084
ssI108
(dp84
I140
F0.988411808431337
ssI110
(dp85
I113
F0.11110866063039
ssI111
(dp86
I0
F2.18487687574793
sI64
F3.65662272693522
sI66
F13.8269386587034
sI140
F2.09610867496233
sI75
F12.5103188325446
sI76
F4.38030416636665
sI13
F5.72986715797861
sI93
F1.95811189002412
sI15
F1.88626186156254
sI112
F1.55714665889918
sI52
F1.93749673795893
sI94
F10.1772021912975
sI57
F2.83310227313517
sI121
F0.0948403953813888
sI123
F0.103668231730793
sI61
F2.34574524133461
sI126
F12.7984364193468
sI85
F14.0439149622854
ssI112
(dp87
I111
F1.55714665889918
ssI113
(dp88
I96
F0.802792522556184
sI35
F0.0710684956979026
sI101
F2.35086963279073
sI71
F0.197134777062409
sI8
F0.286277675650335
sI12
F0.226787633761962
sI41
F0.378649812567361
sI55
F0.204904368580868
sI140
F5.72539765160039
sI13
F1.62733364571067
sI110
F0.11110866063039
sI80
F2.01525033960335
sI40
F1.57033497150171
sI18
F0.41990372425242
sI117
F1.08194102317162
sI119
F1.51845914236114
sI91
F0.620583384672223
sI10
F0.280723638773994
sI127
F0.378247129982372
ssI114
(dp89
I137
F1.52763165512758
sI13
F1.49060940405506
ssI116
(dp90
I13
F0.281322687176047
ssI117
(dp91
I113
F1.08194102317162
ssI118
(dp92
I14
F0.115154345936281
ssI119
(dp93
I33
F0.291354511157101
sI66
F19.9722092440453
sI70
F0.140710746447411
sI140
F6.8145233115144
sI82
F0.331362797725137
sI113
F1.51845914236114
sI146
F0.806554421394956
sI27
F0.37315318644516
ssI120
(dp94
I57
F2.33448239760323
sI140
F2.85501508977803
ssI121
(dp95
I111
F0.0948403953813888
ssI122
(dp96
I16
F1.53362965140341
sI147
F0.624491474490011
ssI123
(dp97
I111
F0.103668231730793
ssI124
(dp98
I136
F3.03927743798862
sI39
F4.72962062541796
ssI125
(dp99
I13
F1.15209081294177
ssI126
(dp100
I140
F14.0526484629278
sI74
F2.84864363952102
sI75
F0.930875068217323
sI76
F10.0456672433203
sI78
F3.109632808196285
sI111
F12.7984364193468
sI50
F0.268083922965192
sI84
F2.39033852037053
sI14
F15.5956600742354
sI73
F1.83959383864949
sI9
F1.85801368545196
sI58
F0.0317327871932893
sI85
F2.76945681575568
ssI127
(dp101
I113
F0.378247129982372
ssI128
(dp102
I32
F0.594653354898354
sI76
F1.45877351431596
sI29
F1.17633330140073
ssI130
(dp103
I140
F1.02159942613511
ssI132
(dp104
I14
F1.72156084371978
ssI133
(dp105
I147
F1.64384925452502
ssI134
(dp106
I13
F2.27328418572432
ssI135
(dp107
I29
F2.63735820936562
ssI136
(dp108
I65
F0.511787808961864
sI76
F5.31257916564315
sI85
F7.72580873446228
sI124
F3.03927743798862
ssI137
(dp109
I114
F1.52763165512758
sI13
F0.0416012278374601
ssI140
(dp110
I130
F1.02159942613511
sI3
F0.679271467429091
sI6
F0.587529818506004
sI142
F0.200836184542278
sI28
F1.0662323550404
sI53
F1.7403911963495
sI64
F1.89714357641037
sI66
F13.9413353089448
sI68
F0.994849604807387
sI72
F1.31580076013171
sI76
F6.43760504337832
sI85
F14.960010383025
sI86
F1.22812492845315
sI88
F0.127570236677293
sI98
F2.01223970834797
sI99
F2.78909697835556
sI102
F1.81259705674727
sI104
F1.86129440025357
sI105
F2.47832477920296
sI108
F0.988411808431337
sI111
F2.09610867496233
sI113
F5.72539765160039
sI119
F6.8145233115144
sI120
F2.85501508977803
sI126
F14.0526484629278
ssI142
(dp111
I140
F0.200836184542278
ssI143
(dp112
I147
F1.00603511318344
ssI145
(dp113
I13
F1.99566142506829
ssI146
(dp114
I119
F0.806554421394956
ssI147
(dp115
I133
F1.64384925452502
sI14
F3.23558877686677
sI143
F1.00603511318344
sI16
F1.47087066432708
sI51
F1.56177986306202
sI87
F1.20498594835168
sI122
F0.624491474490011
ss.(dp0
I0
S'Des Moines, IA'
p1
sg1
I0
sS'Wayne, PA'
p2
I1
sI3
S'Milwaukee, WI'
p3
sS'Tulsa, OK'
p4
I2
sg3
I3
sI6
S'South Bend, IN'
p5
sI1
g2
sI8
S'Freehold, NJ'
p6
sI9
S'Las Vegas, NV'
p7
sI10
S'Stamford, CT'
p8
sI11
S'Helena, MT'
p9
sS'Dahlgren, VA'
p10
I4
sI2
g4
sI14
S'Atlanta, GA'
p11
sg5
I6
sI16
S'Fort Lauderdale, FL'
p12
sI17
S'Harrisburg, PA'
p13
sI18
S'Bridgeport, CT'
p14
sI19
S'London, UnitedKingdom'
p15
sI20
S'Oakland, CA'
p16
sI21
S'Spokane, WA'
p17
sS'Salisbury, MD'
p18
I7
sI23
S'Nicosia, Cyprus'
p19
sI24
S'Boise, ID'
p20
sg6
I8
sI26
S'Abingdon, VA'
p21
sI27
S'Manchester, NH'
p22
sI28
S'Galva, IL'
p23
sI29
S'Houston, TX'
p24
sI30
S'Ashburn, VA'
p25
sI5
S'Vancouver, Canada'
p26
sI32
S'San Antonio, TX'
p27
sI33
S'Worcester, MA'
p28
sI34
S'Relay, MD'
p29
sI35
S'Newark, NJ'
p30
sI36
S'Paris, France'
p31
sI37
S'Oklahoma City, OK'
p32
sI38
S'Prague, CzechRepublic'
p33
sI39
S'Santa Clara, CA'
p34
sI40
S'Syracuse, NY'
p35
sI41
S'New Brusnwick, NJ'
p36
sg9
I11
sI7
g18
sI44
S'Columbia, SC'
p37
sS'New Brunswick, NJ'
p38
I12
sI46
S'Palo Alto, CA'
p39
sI47
S'Boston, MA'
p40
sI48
S'McLean, VA'
p41
sI49
S'Hamilton Square, NJ'
p42
sI50
S'Anaheim, CA'
p43
sS'Washington, DC'
p44
I13
sI52
S'Memphis, TN'
p45
sI53
S'Plymouth, MI'
p46
sg11
I14
sI55
S'White Plains, NY'
p47
sI56
S'Fort Worth, TX'
p48
sI57
S'Omaha, NE'
p49
sI58
S'Sherman Oaks, CA'
p50
sI59
S'Birmingham, AL'
p51
sI60
S'Brussels, Belgium'
p52
sI61
S'Little Rock, AR'
p53
sI62
S'Carrollton, TX'
p54
sI63
S'Sunnyvale, CA'
p55
sI64
S'Detroit, MI'
p56
sI65
S'Colorado Springs, CO'
p57
sI66
S'Seattle, WA'
p58
sI67
S'Bucharest, Romania'
p59
sI68
S'Champaign, IL'
p60
sI69
S'Honolulu, HI'
p61
sI70
S'Framingham, MA'
p62
sI71
S'Cedar Knolls, NJ'
p63
sI72
S'Indianapolis, IN'
p64
sS'Kansas City, MO'
p65
I15
sI74
S'Sacramento, CA'
p66
sI75
S'San Diego, CA'
p67
sI76
S'Dallas, TX'
p68
sI77
S'Camden, NJ'
p69
sI78
S'Gardena, CA'
p70
sg12
I16
sg13
I17
sg14
I18
sI82
S'Providence, RI'
p71
sI83
S'Budapest, Hungary'
p72
sI84
S'San Jose, CA'
p73
sI85
S'San Francisco, CA'
p74
sI86
S'Davenport, IA'
p75
sI87
S'West Palm Beach, FL'
p76
sI88
S'Oak Brook, IL'
p77
sI89
S'Albuquerque, NM'
p78
sI90
S'Toronto, Canada'
p79
sg15
I19
sI92
S'Riverside, CA'
p80
sI93
S'Louisville, KY'
p81
sI94
S'Phoenix, AZ'
p82
sI95
S'Herndon, VA'
p83
sI96
S'Hartford, CT'
p84
sI97
S'Amsterdam, Netherlands'
p85
sI98
S'Cincinnati, OH'
p86
sI99
S'St. Paul, MN'
p87
sg17
I21
sI101
S'Buffalo, NY'
p88
sI102
S'Brookhaven, MI'
p89
sI103
S'Cheyenne, WY'
p90
sI104
S'Dayton, OH'
p91
sS'Orange County, CA'
p92
I22
sI106
S'Charlotte, NC'
p93
sg19
I23
sg20
I24
sS'Vienna, Austria'
p94
I25
sI110
S'Rochelle Park, NJ'
p95
sI111
S'St Louis, MO'
p96
sI112
S'Springfield, MO'
p97
sg34
I39
sg26
I5
sI115
S'Springfield, MA'
p98
sI116
S'Baltimore, MD'
p99
sI117
S'Albany, NY'
p100
sI118
S'Dunwoody, GA'
p101
sI105
S'Cleveland, OH'
p102
sI120
S'Minneapolis, MN'
p103
sg23
I28
sI122
S'Tampa, FL'
p104
sI123
S'Bridgeton, MO'
p105
sI124
S'Salt Lake City, UT'
p106
sg24
I29
sI4
g10
sg25
I30
sS'Silver Springs, MD'
p107
I31
sI129
S'Madrid, Spain'
p108
sI130
S'Grand Rapids, MI'
p109
sI107
S'Raleigh, NC'
p110
sI132
S'Nashville, TN'
p111
sI22
g92
sI134
S'Akron, OH'
p112
sI135
S'New Orleans, LA'
p113
sI136
S'Denver, CO'
p114
sg27
I32
sI138
S'Frankfurt, Germany'
p115
sg28
I33
sI140
S'Chicago, IL'
p116
sg29
I34
sI142
S'Rolling Meadows, IL'
p117
sI109
S'Portsmouth, UnitedKingdom'
p118
sg30
I35
sI145
S'Greensboro, NC'
p119
sI146
S'Portland, ME'
p120
sg115
I138
sI25
g94
sg31
I36
sg32
I37
sg87
I99
sg21
I26
sg35
I40
sg36
I41
sS'Milan, Italy'
p121
I42
sS'Stockton, CA'
p122
I43
sI108
S'Madison, WI'
p123
sI91
S'Philadelphia, PA'
p124
sg64
I72
sI31
g107
sS'Stockholm, Sweden'
p125
I45
sg39
I46
sg40
I47
sg41
I48
sg42
I49
sI119
S'Cambridge, MA'
p126
sg43
I50
sS'Ojus, FL'
p127
I51
sg45
I52
sI121
S'Florissant, MO'
p128
sg46
I53
sS'Madison Heights, VA'
p129
I54
sS'Norfolk, VA'
p130
I125
sg66
I74
sg119
I145
sg48
I56
sg49
I57
sI127
S'Bohemia, NY'
p131
sg50
I58
sI125
g130
sI126
S'Los Angeles, CA'
p132
sg51
I59
sg52
I60
sI42
g121
sg54
I62
sI128
S'Austin, TX'
p133
sg55
I63
sI43
g122
sg56
I64
sg57
I65
sg58
I66
sg60
I68
sI45
g125
sg62
I70
sI131
S'Eugene, OR'
p134
sg63
I71
sg37
I44
sI133
S'Miami, FL'
p135
sS'San Bernadino, CA'
p136
I73
sg47
I55
sg67
I75
sg98
I115
sg68
I76
sg69
I77
sg70
I78
sS'Pittsburgh, PA'
p137
I79
sI51
g127
sI137
S'Arlington, VA'
p138
sS'Copenhagen, Denmark'
p139
I81
sg114
I136
sg71
I82
sI139
S'Charleston, SC'
p140
sI147
S'Orlando, FL'
p141
sI54
g129
sg73
I84
sg74
I85
sg75
I86
sg76
I87
sg77
I88
sg138
I137
sI141
S'Annapolis, MD'
p142
sg79
I90
sg124
I91
sg80
I92
sg81
I93
sI143
S'Jacksonville, FL'
p143
sI144
S'Vienna, VA'
p144
sg82
I94
sg83
I95
sI114
S'Richmond, VA'
p145
sg105
I123
sg84
I96
sg85
I97
sg140
I139
sg86
I98
sI12
g38
sg33
I38
sS'Portland, OR'
p146
I100
sg88
I101
sg89
I102
sS'Rochester, NY'
p147
I80
sg90
I103
sg91
I104
sg102
I105
sg93
I106
sg110
I107
sg123
I108
sg118
I109
sg95
I110
sI13
g44
sg96
I111
sg97
I112
sS'New York, NY'
p148
I113
sg143
I143
sg145
I114
sg59
I67
sg99
I116
sg100
I117
sg72
I83
sg126
I119
sg103
I120
sg8
I10
sg104
I122
sg7
I9
sg106
I124
sI73
g136
sg16
I20
sg22
I27
sg131
I127
sg133
I128
sI100
g146
sg108
I129
sg109
I130
sI15
g65
sg111
I132
sg135
I133
sg101
I118
sg112
I134
sg113
I135
sg132
I126
sI79
g137
sg61
I69
sI80
g147
sg78
I89
sg134
I131
sI81
g139
sg116
I140
sg142
I141
sg117
I142
sg53
I61
sg144
I144
sI113
g148
sg128
I121
sg120
I146
sg141
I147
s.(dp0
I133
(lp1
I3549
aI701
asI136
(lp2
I1
aI209
aI3561
aI701
asI138
(lp3
I2686
asI140
(lp4
I1
aI7170
aI1668
aI2828
aI1299
aI3356
aI10910
aI4513
aI174
aI6453
aI6461
aI209
aI1239
aI3549
aI2914
aI4323
aI3561
aI701
aI16631
asI13
(lp5
I1
aI7170
aI1668
aI2828
aI11537
aI5650
aI3356
aI10910
aI6461
aI6467
aI209
aI4565
aI1239
aI3549
aI3300
aI3561
aI701
aI2548
aI1785
aI2686
asI14
(lp6
I5511
aI10910
aI174
aI209
aI1239
aI3561
aI701
asI15
(lp7
I701
asI146
(lp8
I701
asI147
(lp9
I10910
asI30
(lp10
I5400
asI34
(lp11
I1239
asI40
(lp12
I4323
asI43
(lp13
I1239
asI46
(lp14
I5511
aI5650
aI4006
asI48
(lp15
I2914
asI56
(lp16
I701
asI57
(lp17
I701
asI64
(lp18
I2548
asI66
(lp19
I1
aI3356
aI10910
aI6461
aI209
aI1239
aI3549
aI2914
aI101
aI3561
aI701
asI69
(lp20
I4323
asI72
(lp21
I11537
asI76
(lp22
I3356
aI10910
aI174
aI6461
aI4544
aI209
aI1239
aI7132
aI2914
aI4323
aI7911
aI3561
aI701
aI2548
aI16631
aI6395
asI84
(lp23
I3356
asI85
(lp24
I2828
aI5400
aI10910
aI4006
aI174
aI3549
aI4323
aI3561
aI701
aI2548
aI2687
asI87
(lp25
I701
asI91
(lp26
I10910
aI209
asI94
(lp27
I1239
asI96
(lp28
I1239
asI103
(lp29
I1239
asI111
(lp30
I1
aI1239
asI113
(lp31
I1
aI5511
aI1299
aI5400
aI3356
aI10910
aI4513
aI174
aI6461
aI209
aI1239
aI3549
aI4323
aI3561
aI701
aI2548
aI3320
aI1785
aI6395
aI2686
asI114
(lp32
I701
asI19
(lp33
I2686
asI116
(lp34
I1239
asI117
(lp35
I1785
asI120
(lp36
I3561
aI701
asI124
(lp37
I5650
aI701
asI126
(lp38
I1
aI7170
aI1668
aI5400
aI3356
aI10910
aI6453
aI209
aI1239
aI2914
aI4323
aI701
aI1785
aI6395
aI2687
as.