(dp0
I0
(dp1
I20
F0.782996980464399
ssI1
(dp2
I46
F0.230796679506136
ssI2
(dp3
I46
F0.303548497283278
ssI3
(dp4
I36
F1.27987987754245
ssI4
(dp5
I34
F0.359674776933853
ssI5
(dp6
I33
F2.73985845598126
sI11
F0.77275760811344
sI29
F10.5991388284493
ssI7
(dp7
I29
F0.383932481584038
ssI8
(dp8
I36
F0.824637748542658
ssI9
(dp9
I29
F1.93693659855756
ssI10
(dp10
I34
F5.61884494538457
ssI11
(dp11
I5
F0.77275760811344
ssI12
(dp12
I46
F1.57467284056897
ssI13
(dp13
I34
F0.42692206811024
ssI14
(dp14
I36
F2.33602797836195
sI46
F1.18918741582091
ssI16
(dp15
I46
F1.91300161321378
ssI17
(dp16
I46
F2.5513700638689
ssI18
(dp17
I34
F6.91499935344374
ssI19
(dp18
I46
F0.789418423716399
ssI20
(dp19
I0
F0.782996980464399
sI36
F2.95228122867468
sI45
F1.05109173852561
ssI21
(dp20
I36
F2.39388186575196
ssI22
(dp21
I29
F0.410934338251794
ssI23
(dp22
I34
F2.5828562440869
ssI24
(dp23
I46
F0.651636612713129
ssI25
(dp24
I36
F0.536172633029843
ssI26
(dp25
I36
F1.14234917045032
ssI27
(dp26
I46
F60.3095464758688
ssI28
(dp27
I46
F59.74640888143
ssI29
(dp28
I36
F3.34149401363677
sI5
F10.5991388284493
sI7
F0.383932481584038
sI9
F1.93693659855756
sI39
F13.0551821715223
sI22
F0.410934338251794
sI31
F0.960883749376704
ssI30
(dp29
I46
F59.8122862074532
ssI31
(dp30
I29
F0.960883749376704
ssI32
(dp31
I46
F0.285103664740644
ssI33
(dp32
I5
F2.73985845598126
ssI34
(dp33
I4
F0.359674776933853
sI37
F3.74195445826965
sI40
F0.54020828706131
sI10
F5.61884494538457
sI13
F0.42692206811024
sI46
F3.72002011770336
sI18
F6.91499935344374
sI23
F2.5828562440869
ssI35
(dp34
I46
F0.178550628109316
ssI36
(dp35
I3
F1.27987987754245
sI8
F0.824637748542658
sI43
F0.685562165323106
sI14
F2.33602797836195
sI20
F2.95228122867468
sI21
F2.39388186575196
sI46
F3.52506386753417
sI25
F0.536172633029843
sI26
F1.14234917045032
sI29
F3.34149401363677
ssI37
(dp36
I34
F3.74195445826965
ssI39
(dp37
I29
F13.0551821715223
ssI40
(dp38
I34
F0.54020828706131
ssI41
(dp39
I46
F3.00806372808892
ssI42
(dp40
I46
F1.20103333687123
ssI43
(dp41
I36
F0.685562165323106
ssI44
(dp42
I46
F0.0
ssI45
(dp43
I20
F1.05109173852561
ssI46
(dp44
I32
F0.285103664740644
sI1
F0.230796679506136
sI34
F3.72002011770336
sI35
F0.178550628109316
sI36
F3.52506386753417
sI12
F1.57467284056897
sI41
F3.00806372808892
sI42
F1.20103333687123
sI44
F0.0
sI2
F0.303548497283278
sI14
F1.18918741582091
sI16
F1.91300161321378
sI17
F2.5513700638689
sI19
F0.789418423716399
sI24
F0.651636612713129
sI27
F60.3095464758688
sI28
F59.74640888143
sI30
F59.8122862074532
ss.(dp0
I0
S'Launceston, Tazmania'
p1
sI1
S'Penrith, Australia'
p2
sI2
S'Wollongong, Australia'
p3
sI3
S'Albury, Australia'
p4
sI4
S'Southport, Australia'
p5
sI5
S'Perth, Australia'
p6
sg4
I3
sI7
S'Victor Harbour, Australia'
p7
sI8
S'Shepparton, Australia'
p8
sI9
S'Mount Gambier, Australia'
p9
sI10
S'Townsville, Australia'
p10
sI11
S'Bunbury, Australia'
p11
sI12
S'Tamworth, Australia'
p12
sg6
I5
sI14
S'Canberra, Australia'
p13
sI15
S'tmhs'
p14
sI16
S'Armidale, Australia'
p15
sI17
S'Moree, Australia'
p16
sS'Napa, CA'
p17
I6
sI19
S'Bathurst, Australia'
p18
sI20
S'Hobart, Australia'
p19
sI21
S'Mildura, Australia'
p20
sI22
S'Yorketown, Australia'
p21
sI23
S'Rockhampton, Australia'
p22
sI24
S'Newcastle, Australia'
p23
sI25
S'Ballarat, Australia'
p24
sI26
S'Warnambool, Australia'
p25
sI27
S'Los Angeles, CA'
p26
sI28
S'Palo Alto, CA'
p27
sI29
S'Adelaide, Australia'
p28
sI30
S'San Jose, CA'
p29
sI31
S'Port Pirie, Australia'
p30
sI32
S'Gosford, Australia'
p31
sI33
S'Kalgoorlie, Australia'
p32
sI34
S'Brisbane, Australia'
p33
sg13
I14
sI36
S'Melbourne, Australia'
p34
sI6
g17
sI38
S'hhts'
p35
sI39
S'Darwin, Australia'
p36
sI40
S'Toowoomba, Australia'
p37
sI41
S'Lismore, Australia'
p38
sI42
S'Orange, Australia'
p39
sI43
S'Bendigo, Australia'
p40
sI44
S'Port Maquarie, Australia'
p41
sI45
S'Ulverstone, Tasmania'
p42
sI46
S'Sydney, Australia'
p43
sg21
I22
sg2
I1
sS'Campbelltown, Australia'
p44
I35
sI13
S'Maroochydore, Australia'
p45
sI18
S'Cairns, Australia'
p46
sg3
I2
sg14
I15
sg45
I13
sg16
I17
sg46
I18
sg19
I20
sg20
I21
sg24
I25
sg25
I26
sg27
I28
sg28
I29
sg30
I31
sg32
I33
sg33
I34
sg34
I36
sI35
g44
sI37
S'Mackay, Australia'
p47
sg38
I41
sg39
I42
sg42
I45
sg1
I0
sg5
I4
sg7
I7
sg8
I8
sg9
I9
sg10
I10
sg11
I11
sg18
I19
sg22
I23
sg29
I30
sg47
I37
sg37
I40
sg40
I43
sg15
I16
sg12
I12
sg23
I24
sg26
I27
sg31
I32
sg36
I39
sg41
I44
sg35
I38
sg43
I46
s.(dp0
I5
(lp1
I7543
asI6
(lp2
I4565
asI46
(lp3
I7543
aI3549
aI4637
aI2687
asI27
(lp4
I1
asI28
(lp5
I577
aI2914
aI4637
asI30
(lp6
I1239
as.