(dp0
I32
(dp1
I24
I1
sI26
I1
ssI33
(dp2
I24
I1
sI26
I1
ssI2
(dp3
I37
I1
sI6
I1
sI14
I1
sI15
I1
sI19
I1
sI31
I1
ssI4
(dp4
I8
I1
sI19
I1
sI31
I1
ssI37
(dp5
I2
I1
sI15
I1
ssI6
(dp6
I2
I1
sI19
I1
sI26
I1
sI14
I1
sI31
I1
ssI7
(dp7
I19
I1
ssI8
(dp8
I4
I1
sI12
I1
sI14
I1
sI15
I1
sI26
I1
sI31
I1
ssI9
(dp9
I24
I1
sI26
I1
ssI12
(dp10
I8
I1
sI14
I1
ssI14
(dp11
I2
I1
sI6
I1
sI8
I1
sI12
I1
sI15
I1
sI19
I1
sI26
I1
ssI15
(dp12
I8
I1
sI2
I1
sI37
I1
sI14
I1
ssI17
(dp13
I19
I1
ssI18
(dp14
I19
I1
ssI19
(dp15
I2
I1
sI4
I1
sI6
I1
sI7
I1
sI14
I1
sI17
I1
sI18
I1
sI25
I1
ssI24
(dp16
I32
I1
sI9
I1
sI26
I1
sI33
I1
ssI25
(dp17
I19
I1
ssI26
(dp18
I32
I1
sI33
I1
sI6
I1
sI8
I1
sI9
I1
sI14
I1
sI24
I1
ssI31
(dp19
I8
I1
sI2
I1
sI4
I1
sI6
I1
ss.(dp0
S'Carrollton, TX'
p1
I0
sI0
g1
sS'Sunnyvale, CA'
p2
I1
sI3
S'Raleigh, NC'
p3
sg3
I3
sI5
S'Berlin, Germany'
p4
sI6
S'Relay, MD'
p5
sI1
g2
sI8
S'New York, NY'
p6
sI9
S'Paris, France'
p7
sI10
S'Minneapolis, MN'
p8
sI11
S'Sacramento, CA'
p9
sg4
I5
sI2
S'Dallas, TX'
p10
sI14
S'Washington, DC'
p11
sI15
S'Atlanta, GA'
p12
sS'Seattle, WA'
p13
I4
sI17
S'Los Angeles, CA'
p14
sS'Napa, CA'
p15
I7
sI19
S'San Jose, CA'
p16
sg6
I8
sI21
S'Miami, FL'
p17
sI22
S'Anaheim, CA'
p18
sI23
S'Philadelphia, PA'
p19
sI24
S'Frankfurt, Germany'
p20
sI4
g13
sI26
S'London, UnitedKingdom'
p21
sI27
S'Salt Lake City, UT'
p22
sI28
S'Denver, CO'
p23
sg7
I9
sS'San Francisco, CA'
p24
I20
sI31
S'Chicago, IL'
p25
sI32
S'Amsterdam, Netherlands'
p26
sI33
S'Vienna, Austria'
p27
sI34
S'Vienna, VA'
p28
sg8
I10
sI36
S'Hamburg, Germany'
p29
sg9
I11
sI38
S'Cleveland, OH'
p30
sI39
S'Ashburn, VA'
p31
sg10
I2
sI29
S'Phoenix, AZ'
p32
sg11
I14
sI30
S'Reston, VA'
p33
sg12
I15
sS'Nashville, TN'
p34
I13
sI13
g34
sg14
I17
sg16
I19
sS'Palo Alto, CA'
p35
I18
sS'Boston, MA'
p36
I12
sI12
g36
sg17
I21
sg5
I6
sg18
I22
sI35
S'Santa Clara, CA'
p37
sg19
I23
sg20
I24
sI7
g15
sS'Tokyo, Japan'
p38
I25
sg21
I26
sg22
I27
sI37
S'Houston, TX'
p39
sg23
I28
sI16
S'Kansas City, MO'
p40
sg32
I29
sg33
I30
sg40
I16
sg25
I31
sg26
I32
sg31
I39
sI18
g35
sg28
I34
sg37
I35
sI25
g38
sI20
g24
sg29
I36
sg39
I37
sg30
I38
sg27
I33
s.(dp0
I32
(lp1
I1299
aI3356
asI2
(lp2
I701
aI2914
aI7018
aI16631
asI4
(lp3
I1
aI701
aI9942
aI11608
aI2914
aI4323
aI3561
aI7018
asI6
(lp4
I1239
asI8
(lp5
I1299
aI6939
aI3356
aI6453
aI701
aI577
aI209
aI1239
aI2914
aI4323
aI7018
aI16631
aI6395
asI9
(lp6
I8220
asI14
(lp7
I3356
aI701
aI6467
aI209
aI4565
aI3300
aI3561
aI7018
aI2548
aI16631
asI17
(lp8
I209
asI18
(lp9
I1
aI2828
aI6939
aI4637
aI6453
aI3549
aI2914
aI16631
asI19
(lp10
I1
aI6939
aI6467
aI1239
aI4725
asI24
(lp11
I1299
aI5669
aI3356
aI13129
aI3549
aI3561
asI25
(lp12
I2497
aI4725
asI26
(lp13
I5511
aI7176
aI1299
aI5400
aI8220
aI5669
aI3356
aI6453
aI1239
aI3549
aI4589
asI31
(lp14
I1
aI3356
aI701
aI577
aI3549
aI2914
aI4323
aI7018
as.