(dp0
I0
(dp1
I85
F2.18487687574793
ssI1
(dp2
I69
F0.111113754997158
ssI2
(dp3
I57
F1.90462597620502
ssI3
(dp4
I109
F0.679271467429091
ssI4
(dp5
I109
F0.587529818506004
ssI5
(dp6
I87
F0.286277675650335
ssI6
(dp7
I99
F1.85801368545196
ssI7
(dp8
I87
F0.280723638773994
ssI8
(dp9
I87
F0.226787633761962
ssI9
(dp10
I33
F0.0791793285538616
sI98
F1.15209081294177
sI69
F1.00741082347545
sI39
F1.21989824411529
sI105
F2.27328418572432
sI10
F4.38018878263173
sI108
F0.0416012278374601
sI112
F1.99566142506829
sI17
F2.50061812014333
sI82
F1.8616231104935
sI21
F0.225316255475169
sI22
F0.354150688737922
sI87
F1.62733364571067
sI88
F1.49060940405506
sI89
F0.281322687176047
sI85
F5.72986715797861
ssI10
(dp11
I99
F15.5956600742354
sI103
F1.72156084371978
sI9
F4.38018878263173
sI44
F1.11100313105052
sI82
F2.87054830888084
sI81
F1.83053301410572
sI114
F3.23558877686677
sI57
F5.75137875158028
sI91
F0.115154345936281
sI30
F1.63715020018745
ssI11
(dp12
I42
F1.32781843775159
sI85
F1.88626186156254
ssI12
(dp13
I114
F1.47087066432708
sI95
F1.53362965140341
ssI13
(dp14
I69
F0.759304494750295
ssI14
(dp15
I87
F0.41990372425242
ssI15
(dp16
I64
F0.123627574278185
ssI16
(dp17
I48
F1.85297953379378
ssI17
(dp18
I9
F2.50061812014333
ssI18
(dp19
I92
F0.37315318644516
ssI19
(dp20
I109
F1.0662323550404
ssI20
(dp21
I32
F12.900435070856
sI57
F1.79734274874247
sI106
F2.63735820936562
sI101
F1.17633330140073
ssI21
(dp22
I9
F0.225316255475169
ssI22
(dp23
I9
F0.354150688737922
ssI23
(dp24
I57
F2.0304558691511
sI101
F0.594653354898354
ssI24
(dp25
I92
F0.291354511157101
ssI25
(dp26
I87
F0.0710684956979026
ssI26
(dp27
I57
F1.53243516305084
ssI27
(dp28
I64
F0.352097076827034
sI97
F4.72962062541796
ssI28
(dp29
I87
F1.57033497150171
ssI29
(dp30
I87
F0.378649812567361
ssI30
(dp31
I10
F1.63715020018745
ssI31
(dp32
I64
F0.261255074734326
ssI32
(dp33
I20
F12.900435070856
ssI33
(dp34
I9
F0.0791793285538616
ssI34
(dp35
I69
F0.23977172330055
ssI35
(dp36
I99
F0.268083922965192
ssI36
(dp37
I114
F1.56177986306202
ssI37
(dp38
I85
F1.93749673795893
ssI38
(dp39
I109
F1.7403911963495
sI46
F0.158516609505823
ssI39
(dp40
I9
F1.21989824411529
ssI40
(dp41
I87
F0.204904368580868
ssI41
(dp42
I57
F0.268573287761392
ssI42
(dp43
I11
F1.32781843775159
sI93
F2.33448239760323
sI85
F2.83310227313517
ssI43
(dp44
I99
F0.0317327871932893
ssI44
(dp45
I10
F1.11100313105052
ssI45
(dp46
I85
F2.34574524133461
ssI46
(dp47
I48
F15.5239806328732
sI69
F3.57972619331095
sI38
F0.158516609505823
sI74
F1.86990710134096
sI109
F1.89714357641037
sI78
F1.64437032523539
sI79
F1.51419285743303
sI80
F0.754422048450058
sI85
F3.65662272693522
ssI47
(dp48
I107
F0.511787808961864
ssI48
(dp49
I64
F5.46425584185052
sI76
F1.1632071890148
sI109
F13.9413353089448
sI46
F15.5239806328732
sI16
F1.85297953379378
sI85
F13.8269386587034
sI92
F19.9722092440453
ssI49
(dp50
I109
F0.994849604807387
ssI50
(dp51
I64
F19.1770294420487
ssI51
(dp52
I92
F0.140710746447411
ssI52
(dp53
I87
F0.197134777062409
ssI53
(dp54
I109
F1.31580076013171
ssI54
(dp55
I99
F1.83959383864949
ssI55
(dp56
I99
F2.84864363952102
ssI56
(dp57
I72
F2.3912331017529
sI99
F0.930875068217323
sI85
F12.5103188325446
ssI57
(dp58
I2
F1.90462597620502
sI99
F10.0456672433203
sI101
F1.45877351431596
sI72
F7.13022347450063
sI41
F0.268573287761392
sI10
F5.75137875158028
sI107
F5.31257916564315
sI109
F6.43760504337832
sI20
F1.79734274874247
sI85
F4.38030416636665
sI23
F2.0304558691511
sI26
F1.53243516305084
ssI58
(dp59
I69
F0.0416162969898546
ssI59
(dp60
I99
F3.109632808196285
ssI60
(dp61
I69
F2.077074442163
ssI61
(dp62
I87
F2.01525033960335
ssI62
(dp63
I92
F0.331362797725137
ssI63
(dp64
I64
F0.381420811600469
sI99
F2.39033852037053
ssI64
(dp65
I48
F5.46425584185052
sI99
F2.76945681575568
sI70
F3.14734273965226
sI107
F7.72580873446228
sI109
F14.960010383025
sI15
F0.123627574278185
sI27
F0.352097076827034
sI50
F19.1770294420487
sI85
F14.0439149622854
sI63
F0.381420811600469
sI31
F0.261255074734326
ssI65
(dp66
I109
F1.22812492845315
ssI66
(dp67
I114
F1.20498594835168
ssI67
(dp68
I109
F0.127570236677293
ssI68
(dp69
I72
F2.6505741832629
ssI69
(dp70
I1
F0.111113754997158
sI34
F0.23977172330055
sI9
F1.00741082347545
sI13
F0.759304494750295
sI46
F3.57972619331095
sI87
F0.620583384672223
sI58
F0.0416162969898546
sI60
F2.077074442163
ssI70
(dp71
I64
F3.14734273965226
ssI71
(dp72
I85
F1.95811189002412
ssI72
(dp73
I56
F2.3912331017529
sI57
F7.13022347450063
sI68
F2.6505741832629
sI85
F10.1772021912975
ssI73
(dp74
I87
F0.802792522556184
ssI74
(dp75
I109
F2.01223970834797
sI46
F1.86990710134096
ssI75
(dp76
I109
F2.78909697835556
ssI76
(dp77
I48
F1.1632071890148
ssI77
(dp78
I87
F2.35086963279073
ssI78
(dp79
I109
F1.81259705674727
sI46
F1.64437032523539
ssI79
(dp80
I109
F1.86129440025357
sI46
F1.51419285743303
ssI80
(dp81
I109
F2.47832477920296
sI46
F0.754422048450058
ssI81
(dp82
I10
F1.83053301410572
ssI82
(dp83
I9
F1.8616231104935
sI10
F2.87054830888084
ssI83
(dp84
I109
F0.988411808431337
ssI84
(dp85
I87
F0.11110866063039
ssI85
(dp86
I96
F0.103668231730793
sI0
F2.18487687574793
sI99
F12.7984364193468
sI37
F1.93749673795893
sI71
F1.95811189002412
sI72
F10.1772021912975
sI64
F14.0439149622854
sI42
F2.83310227313517
sI11
F1.88626186156254
sI109
F2.09610867496233
sI46
F3.65662272693522
sI45
F2.34574524133461
sI48
F13.8269386587034
sI86
F1.55714665889918
sI9
F5.72986715797861
sI56
F12.5103188325446
sI57
F4.38030416636665
sI94
F0.0948403953813888
ssI86
(dp87
I85
F1.55714665889918
ssI87
(dp88
I84
F0.11110866063039
sI61
F2.01525033960335
sI100
F0.378247129982372
sI5
F0.286277675650335
sI7
F0.280723638773994
sI8
F0.226787633761962
sI73
F0.802792522556184
sI77
F2.35086963279073
sI14
F0.41990372425242
sI109
F5.72539765160039
sI40
F0.204904368580868
sI52
F0.197134777062409
sI28
F1.57033497150171
sI9
F1.62733364571067
sI25
F0.0710684956979026
sI90
F1.08194102317162
sI92
F1.51845914236114
sI29
F0.378649812567361
sI69
F0.620583384672223
ssI88
(dp89
I9
F1.49060940405506
sI108
F1.52763165512758
ssI89
(dp90
I9
F0.281322687176047
ssI90
(dp91
I87
F1.08194102317162
ssI91
(dp92
I10
F0.115154345936281
ssI92
(dp93
I109
F6.8145233115144
sI48
F19.9722092440453
sI113
F0.806554421394956
sI18
F0.37315318644516
sI51
F0.140710746447411
sI87
F1.51845914236114
sI24
F0.291354511157101
sI62
F0.331362797725137
ssI93
(dp94
I42
F2.33448239760323
sI109
F2.85501508977803
ssI94
(dp95
I85
F0.0948403953813888
ssI95
(dp96
I114
F0.624491474490011
sI12
F1.53362965140341
ssI96
(dp97
I85
F0.103668231730793
ssI97
(dp98
I27
F4.72962062541796
sI107
F3.03927743798862
ssI98
(dp99
I9
F1.15209081294177
ssI99
(dp100
I64
F2.76945681575568
sI35
F0.268083922965192
sI6
F1.85801368545196
sI10
F15.5956600742354
sI43
F0.0317327871932893
sI109
F14.0526484629278
sI85
F12.7984364193468
sI54
F1.83959383864949
sI55
F2.84864363952102
sI56
F0.930875068217323
sI57
F10.0456672433203
sI59
F3.109632808196285
sI63
F2.39033852037053
ssI100
(dp101
I87
F0.378247129982372
ssI101
(dp102
I57
F1.45877351431596
sI20
F1.17633330140073
sI23
F0.594653354898354
ssI102
(dp103
I109
F1.02159942613511
ssI103
(dp104
I10
F1.72156084371978
ssI104
(dp105
I114
F1.64384925452502
ssI105
(dp106
I9
F2.27328418572432
ssI106
(dp107
I20
F2.63735820936562
ssI107
(dp108
I64
F7.72580873446228
sI57
F5.31257916564315
sI97
F3.03927743798862
sI47
F0.511787808961864
ssI108
(dp109
I88
F1.52763165512758
sI9
F0.0416012278374601
ssI109
(dp110
I3
F0.679271467429091
sI4
F0.587529818506004
sI19
F1.0662323550404
sI38
F1.7403911963495
sI46
F1.89714357641037
sI48
F13.9413353089448
sI49
F0.994849604807387
sI53
F1.31580076013171
sI57
F6.43760504337832
sI64
F14.960010383025
sI65
F1.22812492845315
sI67
F0.127570236677293
sI74
F2.01223970834797
sI75
F2.78909697835556
sI78
F1.81259705674727
sI79
F1.86129440025357
sI80
F2.47832477920296
sI83
F0.988411808431337
sI85
F2.09610867496233
sI87
F5.72539765160039
sI92
F6.8145233115144
sI93
F2.85501508977803
sI99
F14.0526484629278
sI102
F1.02159942613511
sI110
F0.200836184542278
ssI110
(dp111
I109
F0.200836184542278
ssI111
(dp112
I114
F1.00603511318344
ssI112
(dp113
I9
F1.99566142506829
ssI113
(dp114
I92
F0.806554421394956
ssI114
(dp115
I66
F1.20498594835168
sI36
F1.56177986306202
sI104
F1.64384925452502
sI10
F3.23558877686677
sI12
F1.47087066432708
sI111
F1.00603511318344
sI95
F0.624491474490011
ss.(dp0
I0
S'Des Moines, IA'
p1
sg1
I0
sS'Wayne, PA'
p2
I1
sI3
S'Milwaukee, WI'
p3
sS'Tulsa, OK'
p4
I2
sg3
I3
sI6
S'Las Vegas, NV'
p5
sI1
g2
sI8
S'New Brunswick, NJ'
p6
sI9
S'Washington, DC'
p7
sI10
S'Atlanta, GA'
p8
sI11
S'Kansas City, MO'
p9
sI12
S'Fort Lauderdale, FL'
p10
sI2
g4
sI14
S'Bridgeport, CT'
p11
sS'South Bend, IN'
p12
I4
sI16
S'Spokane, WA'
p13
sI17
S'Abingdon, VA'
p14
sI18
S'Manchester, NH'
p15
sI19
S'Galva, IL'
p16
sI20
S'Houston, TX'
p17
sI21
S'Ashburn, VA'
p18
sI22
S'Silver Springs, MD'
p19
sI23
S'San Antonio, TX'
p20
sI24
S'Worcester, MA'
p21
sS'Freehold, NJ'
p22
I5
sI26
S'Oklahoma City, OK'
p23
sI27
S'Santa Clara, CA'
p24
sI28
S'Syracuse, NY'
p25
sI29
S'New Brusnwick, NJ'
p26
sI30
S'Columbia, SC'
p27
sI5
g22
sI32
S'Boston, MA'
p28
sI33
S'McLean, VA'
p29
sI34
S'Hamilton Square, NJ'
p30
sI35
S'Anaheim, CA'
p31
sI36
S'Ojus, FL'
p32
sI37
S'Memphis, TN'
p33
sI38
S'Plymouth, MI'
p34
sI39
S'Madison Heights, VA'
p35
sI40
S'White Plains, NY'
p36
sI41
S'Fort Worth, TX'
p37
sI42
S'Omaha, NE'
p38
sI7
S'Stamford, CT'
p39
sI44
S'Birmingham, AL'
p40
sg6
I8
sI46
S'Detroit, MI'
p41
sI47
S'Colorado Springs, CO'
p42
sI48
S'Seattle, WA'
p43
sI49
S'Champaign, IL'
p44
sI50
S'Honolulu, HI'
p45
sg7
I9
sI52
S'Cedar Knolls, NJ'
p46
sI53
S'Indianapolis, IN'
p47
sg8
I10
sI55
S'Sacramento, CA'
p48
sI56
S'San Diego, CA'
p49
sI57
S'Dallas, TX'
p50
sI58
S'Camden, NJ'
p51
sI59
S'Gardena, CA'
p52
sI60
S'Pittsburgh, PA'
p53
sI61
S'Rochester, NY'
p54
sI62
S'Providence, RI'
p55
sI63
S'San Jose, CA'
p56
sI64
S'San Francisco, CA'
p57
sI65
S'Davenport, IA'
p58
sI66
S'West Palm Beach, FL'
p59
sI67
S'Oak Brook, IL'
p60
sI68
S'Albuquerque, NM'
p61
sI69
S'Philadelphia, PA'
p62
sI70
S'Riverside, CA'
p63
sI71
S'Louisville, KY'
p64
sI72
S'Phoenix, AZ'
p65
sg9
I11
sI74
S'Cincinnati, OH'
p66
sI75
S'St. Paul, MN'
p67
sI76
S'Portland, OR'
p68
sI77
S'Buffalo, NY'
p69
sI78
S'Brookhaven, MI'
p70
sI13
S'Harrisburg, PA'
p71
sg71
I13
sg11
I14
sI82
S'Raleigh, NC'
p72
sI83
S'Madison, WI'
p73
sI84
S'Rochelle Park, NJ'
p74
sI85
S'St Louis, MO'
p75
sI86
S'Springfield, MO'
p76
sI87
S'New York, NY'
p77
sI88
S'Richmond, VA'
p78
sI89
S'Baltimore, MD'
p79
sI90
S'Albany, NY'
p80
sI15
S'Oakland, CA'
p81
sI92
S'Cambridge, MA'
p82
sI93
S'Minneapolis, MN'
p83
sI94
S'Florissant, MO'
p84
sI95
S'Tampa, FL'
p85
sI96
S'Bridgeton, MO'
p86
sI97
S'Salt Lake City, UT'
p87
sI98
S'Norfolk, VA'
p88
sg88
I98
sg13
I16
sI101
S'Austin, TX'
p89
sI102
S'Grand Rapids, MI'
p90
sI103
S'Nashville, TN'
p91
sI104
S'Miami, FL'
p92
sI105
S'Akron, OH'
p93
sI106
S'New Orleans, LA'
p94
sI107
S'Denver, CO'
p95
sI108
S'Arlington, VA'
p96
sI109
S'Chicago, IL'
p97
sI110
S'Rolling Meadows, IL'
p98
sI111
S'Jacksonville, FL'
p99
sI112
S'Greensboro, NC'
p100
sg24
I27
sI114
S'Orlando, FL'
p101
sI79
S'Dayton, OH'
p102
sS'Los Angeles, CA'
p103
I99
sg16
I19
sg17
I20
sI4
g12
sg18
I21
sg19
I22
sg20
I23
sg21
I24
sS'Newark, NJ'
p104
I25
sI25
g104
sg23
I26
sg14
I17
sg25
I28
sg26
I29
sI91
S'Dunwoody, GA'
p105
sg47
I53
sI31
S'Palo Alto, CA'
p106
sg106
I31
sg28
I32
sg29
I33
sg30
I34
sg31
I35
sg32
I36
sg33
I37
sg34
I38
sg35
I39
sg48
I55
sg37
I41
sg38
I42
sS'Sherman Oaks, CA'
p107
I43
sI99
g103
sg40
I44
sS'Little Rock, AR'
p108
I45
sI43
g107
sg41
I46
sg42
I47
sg43
I48
sg44
I49
sI45
g108
sS'Framingham, MA'
p109
I51
sg46
I52
sg27
I30
sS'San Bernadino, CA'
p110
I54
sg36
I40
sg49
I56
sg50
I57
sg51
I58
sg52
I59
sg53
I60
sI51
g109
sg95
I107
sg55
I62
sI54
g110
sg56
I63
sg57
I64
sg58
I65
sg59
I66
sg60
I67
sg96
I108
sg62
I69
sg63
I70
sg64
I71
sg65
I72
sg86
I96
sS'Hartford, CT'
p111
I73
sg66
I74
sg67
I75
sg68
I76
sg69
I77
sg70
I78
sg54
I61
sg102
I79
sS'Cleveland, OH'
p112
I80
sS'Charlotte, NC'
p113
I81
sg72
I82
sg73
I83
sg74
I84
sg75
I85
sg76
I86
sg77
I87
sg78
I88
sg79
I89
sg80
I90
sg105
I91
sg82
I92
sg83
I93
sg39
I7
sg85
I95
sg5
I6
sg87
I97
sI73
g111
sg81
I15
sg15
I18
sS'Bohemia, NY'
p114
I100
sg89
I101
sI100
g114
sg90
I102
sg91
I103
sg92
I104
sg100
I112
sg93
I105
sg94
I106
sg10
I12
sg45
I50
sI80
g112
sg61
I68
sI81
g113
sg97
I109
sg98
I110
sg99
I111
sI113
S'Portland, ME'
p115
sg84
I94
sg115
I113
sg101
I114
s.(dp0
I9
(lp1
I1
aI7170
aI1668
aI2828
aI11537
aI5650
aI3356
aI10910
aI6461
aI6467
aI209
aI4565
aI1239
aI3549
aI3300
aI3561
aI701
aI2548
aI1785
aI2686
asI10
(lp2
I5511
aI10910
aI174
aI209
aI1239
aI3561
aI701
asI11
(lp3
I701
asI21
(lp4
I5400
asI28
(lp5
I4323
asI31
(lp6
I5511
aI5650
aI4006
asI33
(lp7
I2914
asI41
(lp8
I701
asI42
(lp9
I701
asI46
(lp10
I2548
asI48
(lp11
I1
aI3356
aI10910
aI6461
aI209
aI1239
aI3549
aI2914
aI101
aI3561
aI701
asI50
(lp12
I4323
asI53
(lp13
I11537
asI57
(lp14
I3356
aI10910
aI174
aI6461
aI4544
aI209
aI1239
aI7132
aI2914
aI4323
aI7911
aI3561
aI701
aI2548
aI16631
aI6395
asI63
(lp15
I3356
asI64
(lp16
I2828
aI5400
aI10910
aI4006
aI174
aI3549
aI4323
aI3561
aI701
aI2548
aI2687
asI66
(lp17
I701
asI69
(lp18
I10910
aI209
asI72
(lp19
I1239
asI73
(lp20
I1239
asI85
(lp21
I1
aI1239
asI87
(lp22
I1
aI5511
aI1299
aI5400
aI3356
aI10910
aI4513
aI174
aI6461
aI209
aI1239
aI3549
aI4323
aI3561
aI701
aI2548
aI3320
aI1785
aI6395
aI2686
asI88
(lp23
I701
asI89
(lp24
I1239
asI90
(lp25
I1785
asI93
(lp26
I3561
aI701
asI97
(lp27
I5650
aI701
asI99
(lp28
I1
aI7170
aI1668
aI5400
aI3356
aI10910
aI6453
aI209
aI1239
aI2914
aI4323
aI701
aI1785
aI6395
aI2687
asI104
(lp29
I3549
aI701
asI107
(lp30
I1
aI209
aI3561
aI701
asI109
(lp31
I1
aI7170
aI1668
aI2828
aI1299
aI3356
aI10910
aI4513
aI174
aI6453
aI6461
aI209
aI1239
aI3549
aI2914
aI4323
aI3561
aI701
aI16631
asI113
(lp32
I701
asI114
(lp33
I10910
as.