(dp0
I0
(dp1
I3
F60.6239067475396
ssI1
(dp2
I3
F67.3276489498963
sI5
F2.58208058718034
ssI2
(dp3
I4
F0.00555625582655084
sI5
F3.07472103722903
sI7
F35.9741029594949
ssI3
(dp4
I0
F60.6239067475396
sI8
F66.7970900122809
sI5
F64.7455684939786
sI6
F58.7267487954552
sI1
F67.3276489498963
ssI4
(dp5
I2
F0.00555625582655084
sI7
F35.978288463544
ssI5
(dp6
I1
F2.58208058718034
sI2
F3.07472103722903
sI3
F64.7455684939786
ssI6
(dp7
I8
F8.6982009041152
sI3
F58.7267487954552
ssI7
(dp8
I2
F35.9741029594949
sI4
F35.978288463544
ssI8
(dp9
I3
F66.7970900122809
sI6
F8.6982009041152
ss.(dp0
I0
S'Ahmedabad, IN'
p1
sI1
S'Madras, IN'
p2
sI2
S'Mumbai, IN'
p3
sI3
S'New York, NY'
p4
sI4
S'Bombay, IN'
p5
sg1
I0
sI6
S'Delhi, IN'
p6
sI7
S'London, UnitedKingdom'
p7
sI8
S'Bangalore, IN'
p8
sg2
I1
sg3
I2
sg4
I3
sg5
I4
sg8
I8
sS'Hyderabad, IN'
p9
I5
sg6
I6
sg7
I7
sI5
g9
s.(dp0
I3
(lp1
I3549
aI6453
aI4637
asI7
(lp2
I5511
aI3561
as.