(dp0
I0
(dp1
I1
F0.124477546789977
sI6
F11.6748469301052
sI7
F19.5320869716731
sI9
F5.71561756404175
sI10
F0.561280195694849
sI11
F19.4442417506344
sI14
F42.030205069196
sI17
F2.39033852037053
ssI1
(dp2
I0
F0.124477546789977
ssI2
(dp3
I8
F2.34012884016252
sI18
F3.00603025209055
sI5
F1.55963394775673
sI15
F3.15804073417278
ssI3
(dp4
I11
F3.15550474307128
sI12
F1.52818775993091
ssI4
(dp5
I9
F13.9413353089448
sI12
F5.72539765160039
sI6
F6.43760504337832
sI7
F4.84200126992576
ssI5
(dp6
I2
F1.55963394775673
sI15
F1.88532911009081
ssI6
(dp7
I0
F11.6748469301052
sI4
F6.43760504337832
sI7
F9.66921496536546
sI11
F9.49836499313979
sI13
F5.75137875158028
sI16
F1.79734274874247
ssI7
(dp8
I0
F19.5320869716731
sI11
F0.22235770619305
sI4
F4.84200126992576
sI6
F9.66921496536546
sI15
F29.2492288653578
ssI8
(dp9
I2
F2.34012884016252
sI15
F1.71246693397065
ssI9
(dp10
I0
F5.71561756404175
sI12
F19.3209613118993
sI4
F13.9413353089448
ssI10
(dp11
I0
F0.561280195694849
ssI11
(dp12
I0
F19.4442417506344
sI3
F3.15550474307128
sI6
F9.49836499313979
sI7
F0.22235770619305
sI12
F1.62733364571067
sI13
F4.38018878263173
sI15
F29.4645463284345
ssI12
(dp13
I3
F1.52818775993091
sI4
F5.72539765160039
sI9
F19.3209613118993
sI11
F1.62733364571067
sI13
F6.00743024175476
sI15
F27.8377559786444
ssI13
(dp14
I16
F5.6298814446364
sI11
F4.38018878263173
sI12
F6.00743024175476
sI6
F5.75137875158028
ssI14
(dp15
I0
F42.030205069196
ssI15
(dp16
I2
F3.15804073417278
sI5
F1.88532911009081
sI7
F29.2492288653578
sI8
F1.71246693397065
sI11
F29.4645463284345
sI12
F27.8377559786444
sI18
F6.16285580833909
ssI16
(dp17
I13
F5.6298814446364
sI6
F1.79734274874247
ssI17
(dp18
I0
F2.39033852037053
ssI18
(dp19
I2
F3.00603025209055
sI15
F6.16285580833909
ss.(dp0
I0
S'San Jose, CA'
p1
sI1
S'Palo Alto, CA'
p2
sI2
S'Frankfurt, Germany'
p3
sI3
S'Boston, MA'
p4
sI4
S'Chicago, IL'
p5
sI5
S'Amsterdam, Netherlands'
p6
sI6
S'Dallas, TX'
p7
sS'Seattle, WA'
p8
I9
sI8
S'Paris, France'
p9
sI9
g8
sI10
S'Napa, CA'
p10
sI11
S'Washington, DC'
p11
sI12
S'New York, NY'
p12
sS'Relay, MD'
p13
I7
sI14
S'Tokyo, Japan'
p14
sI15
S'London, UnitedKingdom'
p15
sI16
S'Houston, TX'
p16
sI17
S'Los Angeles, CA'
p17
sg10
I10
sg12
I12
sg9
I8
sI18
S'Vienna, Austria'
p18
sg7
I6
sg11
I11
sS'Atlanta, GA'
p19
I13
sg17
I17
sg2
I1
sg1
I0
sg4
I3
sI13
g19
sg3
I2
sI7
g13
sg14
I14
sg15
I15
sg5
I4
sg6
I5
sg18
I18
sg16
I16
s.(dp0
I0
(lp1
I1
aI6939
aI6467
aI1239
aI4725
asI1
(lp2
I1
aI2828
aI6939
aI4637
aI6453
aI3549
aI2914
aI16631
asI2
(lp3
I1299
aI5669
aI3356
aI13129
aI3549
aI3561
asI4
(lp4
I1
aI3356
aI701
aI577
aI3549
aI2914
aI4323
aI7018
asI5
(lp5
I1299
aI3356
asI6
(lp6
I701
aI2914
aI7018
aI16631
asI7
(lp7
I1239
asI8
(lp8
I8220
asI9
(lp9
I1
aI701
aI9942
aI11608
aI2914
aI4323
aI3561
aI7018
asI11
(lp10
I3356
aI701
aI6467
aI209
aI4565
aI3300
aI3561
aI7018
aI2548
aI16631
asI12
(lp11
I1299
aI6939
aI3356
aI6453
aI701
aI577
aI209
aI1239
aI2914
aI4323
aI7018
aI16631
aI6395
asI14
(lp12
I2497
aI4725
asI15
(lp13
I5511
aI7176
aI1299
aI5400
aI8220
aI5669
aI3356
aI6453
aI1239
aI3549
aI4589
asI17
(lp14
I209
as.