(dp0
I0
(dp1
I20
I1
ssI1
(dp2
I46
I1
ssI2
(dp3
I46
I1
ssI3
(dp4
I36
I1
ssI4
(dp5
I34
I1
ssI5
(dp6
I33
I1
sI11
I1
sI29
I1
ssI7
(dp7
I29
I1
ssI8
(dp8
I36
I1
ssI9
(dp9
I29
I1
ssI10
(dp10
I34
I1
ssI11
(dp11
I5
I1
ssI12
(dp12
I46
I1
ssI13
(dp13
I34
I1
ssI14
(dp14
I36
I1
sI46
I1
ssI16
(dp15
I46
I1
ssI17
(dp16
I46
I1
ssI18
(dp17
I34
I1
ssI19
(dp18
I46
I1
ssI20
(dp19
I0
I1
sI36
I1
sI45
I1
ssI21
(dp20
I36
I1
ssI22
(dp21
I29
I1
ssI23
(dp22
I34
I1
ssI24
(dp23
I46
I1
ssI25
(dp24
I36
I1
ssI26
(dp25
I36
I1
ssI27
(dp26
I46
I1
ssI28
(dp27
I46
I1
ssI29
(dp28
I36
I1
sI5
I1
sI7
I1
sI9
I1
sI39
I1
sI22
I1
sI31
I1
ssI30
(dp29
I46
I1
ssI31
(dp30
I29
I1
ssI32
(dp31
I46
I1
ssI33
(dp32
I5
I1
ssI34
(dp33
I4
I1
sI37
I1
sI40
I1
sI10
I1
sI13
I1
sI46
I1
sI18
I1
sI23
I1
ssI35
(dp34
I46
I1
ssI36
(dp35
I3
I1
sI8
I1
sI43
I1
sI14
I1
sI20
I1
sI21
I1
sI46
I1
sI25
I1
sI26
I1
sI29
I1
ssI37
(dp36
I34
I1
ssI39
(dp37
I29
I1
ssI40
(dp38
I34
I1
ssI41
(dp39
I46
I1
ssI42
(dp40
I46
I1
ssI43
(dp41
I36
I1
ssI44
(dp42
I46
I1
ssI45
(dp43
I20
I1
ssI46
(dp44
I32
I1
sI1
I1
sI34
I1
sI35
I1
sI36
I1
sI12
I1
sI41
I1
sI42
I1
sI44
I1
sI2
I1
sI14
I1
sI16
I1
sI17
I1
sI19
I1
sI24
I1
sI27
I1
sI28
I1
sI30
I1
ss.(dp0
I0
S'Launceston, Tazmania'
p1
sI1
S'Penrith, Australia'
p2
sI2
S'Wollongong, Australia'
p3
sI3
S'Albury, Australia'
p4
sI4
S'Southport, Australia'
p5
sI5
S'Perth, Australia'
p6
sg4
I3
sI7
S'Victor Harbour, Australia'
p7
sI8
S'Shepparton, Australia'
p8
sI9
S'Mount Gambier, Australia'
p9
sI10
S'Townsville, Australia'
p10
sI11
S'Bunbury, Australia'
p11
sI12
S'Tamworth, Australia'
p12
sg6
I5
sI14
S'Canberra, Australia'
p13
sI15
S'tmhs'
p14
sI16
S'Armidale, Australia'
p15
sI17
S'Moree, Australia'
p16
sS'Napa, CA'
p17
I6
sI19
S'Bathurst, Australia'
p18
sI20
S'Hobart, Australia'
p19
sI21
S'Mildura, Australia'
p20
sI22
S'Yorketown, Australia'
p21
sI23
S'Rockhampton, Australia'
p22
sI24
S'Newcastle, Australia'
p23
sI25
S'Ballarat, Australia'
p24
sI26
S'Warnambool, Australia'
p25
sI27
S'Los Angeles, CA'
p26
sI28
S'Palo Alto, CA'
p27
sI29
S'Adelaide, Australia'
p28
sI30
S'San Jose, CA'
p29
sI31
S'Port Pirie, Australia'
p30
sI32
S'Gosford, Australia'
p31
sI33
S'Kalgoorlie, Australia'
p32
sI34
S'Brisbane, Australia'
p33
sg13
I14
sI36
S'Melbourne, Australia'
p34
sI6
g17
sI38
S'hhts'
p35
sI39
S'Darwin, Australia'
p36
sI40
S'Toowoomba, Australia'
p37
sI41
S'Lismore, Australia'
p38
sI42
S'Orange, Australia'
p39
sI43
S'Bendigo, Australia'
p40
sI44
S'Port Maquarie, Australia'
p41
sI45
S'Ulverstone, Tasmania'
p42
sI46
S'Sydney, Australia'
p43
sg21
I22
sg2
I1
sS'Campbelltown, Australia'
p44
I35
sI13
S'Maroochydore, Australia'
p45
sI18
S'Cairns, Australia'
p46
sg3
I2
sg14
I15
sg45
I13
sg16
I17
sg46
I18
sg19
I20
sg20
I21
sg24
I25
sg25
I26
sg27
I28
sg28
I29
sg30
I31
sg32
I33
sg33
I34
sg34
I36
sI35
g44
sI37
S'Mackay, Australia'
p47
sg38
I41
sg39
I42
sg42
I45
sg1
I0
sg5
I4
sg7
I7
sg8
I8
sg9
I9
sg10
I10
sg11
I11
sg18
I19
sg22
I23
sg29
I30
sg47
I37
sg37
I40
sg40
I43
sg15
I16
sg12
I12
sg23
I24
sg26
I27
sg31
I32
sg36
I39
sg41
I44
sg35
I38
sg43
I46
s.(dp0
I5
(lp1
I7543
asI6
(lp2
I4565
asI46
(lp3
I7543
aI3549
aI4637
aI2687
asI27
(lp4
I1
asI28
(lp5
I577
aI2914
aI4637
asI30
(lp6
I1239
as.