(dp0
I0
(dp1
I4
F0.0288213047287407
ssI1
(dp2
I4
F0.0926850068982159
ssI2
(dp3
I4
F0.0331657604143426
ssI3
(dp4
I6
F0.302952246334439
ssI4
(dp5
I0
F0.0288213047287407
sI1
F0.0926850068982159
sI2
F0.0331657604143426
sI5
F20.5270464743481
sI6
F2.49858032854643
ssI5
(dp6
I4
F20.5270464743481
ssI6
(dp7
I3
F0.302952246334439
sI4
F2.49858032854643
ss.(dp0
I0
S'Sunnyvale, CA'
p1
sI1
S'Palo Alto, CA'
p2
sg1
I0
sg2
I1
sI4
S'Santa Clara, CA'
p3
sI5
S'New York, NY'
p4
sI6
S'El Segundo, CA'
p5
sS'San Jose, CA'
p6
I2
sI2
g6
sS'Irvine, CA'
p7
I3
sg3
I4
sI3
g7
sg4
I5
sg5
I6
s.(dp0
I0
(lp1
I3561
asI1
(lp2
I3561
asI2
(lp3
I3356
asI4
(lp4
I3561
asI5
(lp5
I4006
aI3561
aI3549
asI6
(lp6
I3561
as.