(dp0
I1
(dp1
I22
F2.57686552836535
ssI2
(dp2
I32
F1.13921132098621
ssI3
(dp3
I32
F1.83264303799452
sI29
F0.951366245531706
sI7
F0.951366245531706
ssI4
(dp4
I32
F3.10648269720832
sI35
F3.1318247112441
sI29
F3.4231207792731
sI22
F2.62276937481765
sI31
F4.73788667198909
ssI5
(dp5
I32
F2.3608930700131
sI41
F2.51315596270897
sI19
F0.827402966014663
sI44
F1.24708576973933
sI29
F2.16152721948152
ssI6
(dp6
I32
F0.96139937019285
sI19
F1.83539965289213
sI29
F0.0851511655220545
ssI7
(dp7
I3
F0.951366245531706
ssI8
(dp8
I34
F5.72539765160039
sI20
F1.62733364571067
sI29
F30.9779065131767
sI31
F27.8377559786444
ssI10
(dp9
I32
F8.14918583249644
sI17
F8.45464881465865
sI29
F8.8556227965482
ssI11
(dp10
I12
F6.70352539340407
sI29
F5.55041180596253
sI31
F5.74820045790492
ssI12
(dp11
I11
F6.70352539340407
sI37
F5.16774091750312
sI38
F2.4455084125225
sI39
F4.43617919635184
sI43
F1.31744391891839
sI16
F3.20129362158168
sI21
F2.08036224110077
sI22
F7.71793263104817
sI23
F5.25377044095577
sI27
F4.13991889254682
sI29
F2.34012884016252
sI31
F1.71246693397065
ssI13
(dp12
I32
F0.325793927884639
ssI14
(dp13
I32
F1.17229157865975
sI42
F0.0586429855340314
sI29
F0.2713579049982
ssI15
(dp14
I34
F6.43760504337832
ssI16
(dp15
I12
F3.20129362158168
sI29
F2.52989648876757
sI38
F1.07711497718376
sI31
F4.78915796529137
ssI17
(dp16
I10
F8.45464881465865
ssI18
(dp17
I43
F0.204478385992668
sI35
F0.519398133020849
sI29
F1.61287587058734
ssI19
(dp18
I5
F0.827402966014663
sI6
F1.83539965289213
ssI20
(dp19
I8
F1.62733364571067
ssI21
(dp20
I12
F2.08036224110077
sI29
F1.41007551065929
sI38
F0.366680314568109
sI31
F3.54227773164879
ssI22
(dp21
I1
F2.57686552836535
sI4
F2.62276937481765
sI29
F6.00851418900465
sI12
F7.71793263104817
sI31
F7.14458851462163
ssI23
(dp22
I12
F5.25377044095577
ssI24
(dp23
I34
F14.7744081963979
ssI26
(dp24
I29
F4.78922936152459
sI31
F7.21160541013533
ssI27
(dp25
I12
F4.13991889254682
sI29
F5.37991393552612
sI31
F5.68255030125975
ssI28
(dp26
I32
F1.63517079057654
sI41
F0.935983454590415
sI29
F0.719728483477231
ssI29
(dp27
I3
F0.951366245531706
sI4
F3.4231207792731
sI5
F2.16152721948152
sI6
F0.0851511655220545
sI8
F30.9779065131767
sI10
F8.8556227965482
sI11
F5.55041180596253
sI12
F2.34012884016252
sI14
F0.2713579049982
sI16
F2.52989648876757
sI18
F1.61287587058734
sI21
F1.41007551065929
sI22
F6.00851418900465
sI26
F4.78922936152459
sI27
F5.37991393552612
sI28
F0.719728483477231
sI30
F0.107407133392645
sI31
F3.15804073417278
sI32
F0.944468343206374
sI33
F1.38506408676656
sI35
F1.55963394775673
sI37
F3.00603025209055
sI38
F1.47245906075377
sI39
F2.11818231087585
sI40
F1.98059150137607
sI41
F1.51653740453145
sI43
F1.5622819497653
sI44
F2.0357355149515
ssI30
(dp28
I32
F0.883783794736344
sI29
F0.107407133392645
ssI31
(dp29
I32
F2.37977630245223
sI35
F1.88532911009081
sI4
F4.73788667198909
sI37
F6.16285580833909
sI38
F3.87862930965681
sI39
F5.19325107609201
sI8
F27.8377559786444
sI43
F1.59576807051388
sI12
F1.71246693397065
sI16
F4.78915796529137
sI11
F5.74820045790492
sI21
F3.54227773164879
sI22
F7.14458851462163
sI26
F7.21160541013533
sI27
F5.68255030125975
sI29
F3.15804073417278
ssI32
(dp30
I33
F1.20226051634331
sI2
F1.13921132098621
sI35
F0.619036876649934
sI4
F3.10648269720832
sI5
F2.3608930700131
sI6
F0.96139937019285
sI40
F2.16985219139704
sI41
F2.45826560385305
sI10
F8.14918583249644
sI44
F1.69409005265576
sI13
F0.325793927884639
sI14
F1.17229157865975
sI3
F1.83264303799452
sI28
F1.63517079057654
sI29
F0.944468343206374
sI30
F0.883783794736344
sI31
F2.37977630245223
ssI33
(dp31
I32
F1.20226051634331
sI29
F1.38506408676656
ssI34
(dp32
I8
F5.72539765160039
sI24
F14.7744081963979
sI15
F6.43760504337832
ssI35
(dp33
I32
F0.619036876649934
sI18
F0.519398133020849
sI4
F3.1318247112441
sI29
F1.55963394775673
sI31
F1.88532911009081
ssI37
(dp34
I12
F5.16774091750312
sI29
F3.00603025209055
sI31
F6.16285580833909
ssI38
(dp35
I16
F1.07711497718376
sI31
F3.87862930965681
sI12
F2.4455084125225
sI21
F0.366680314568109
sI29
F1.47245906075377
ssI39
(dp36
I12
F4.43617919635184
sI29
F2.11818231087585
sI31
F5.19325107609201
ssI40
(dp37
I32
F2.16985219139704
sI29
F1.98059150137607
ssI41
(dp38
I32
F2.45826560385305
sI28
F0.935983454590415
sI5
F2.51315596270897
sI29
F1.51653740453145
ssI42
(dp39
I14
F0.0586429855340314
ssI43
(dp40
I18
F0.204478385992668
sI12
F1.31744391891839
sI29
F1.5622819497653
sI31
F1.59576807051388
ssI44
(dp41
I32
F1.69409005265576
sI5
F1.24708576973933
sI29
F2.0357355149515
ss.(dp0
I0
S'Carrollton, TX'
p1
sI1
S'Malmo, Sweden'
p2
sI2
S'Essen, Germany'
p3
sI3
S'Nuremberg, Germany'
p4
sI4
S'Copenhagen, Denmark'
p5
sI5
S'Berlin, Germany'
p6
sI6
S'Offenbach, Germany'
p7
sI7
S'xWUE, Germany'
p8
sg4
I3
sI9
S'Vienna, VA'
p9
sI10
S'Cologne, Germany'
p10
sI11
S'Oslo, Norway'
p11
sI12
S'Paris, France'
p12
sI13
S'Dortmund, Germany'
p13
sI14
S'Darmstadt, Germany'
p14
sI15
S'Dallas, TX'
p15
sI16
S'Milan, Italy'
p16
sI17
S'Bonn, Germany'
p17
sI18
S'Antwerp, Belgium'
p18
sI19
S'Dresden, Germany'
p19
sI20
S'Washington, DC'
p20
sI21
S'Basel, Switzerland'
p21
sI22
S'Stockholm, Sweden'
p22
sI23
S'Madrid, Spain'
p23
sI24
S'San Jose, CA'
p24
sI25
S'San Francisco, CA'
p25
sI26
S'Rome, Italy'
p26
sI27
S'Barcelona, Spain'
p27
sI28
S'Stuttgart, Germany'
p28
sI29
S'Frankfurt, Germany'
p29
sI30
S'Mainz, Germany'
p30
sI31
S'London, UnitedKingdom'
p31
sI32
S'Dusseldorf, Germany'
p32
sI33
S'Hanover, Germany'
p33
sI34
S'Chicago, IL'
p34
sI35
S'Amsterdam, Netherlands'
p35
sI36
S'Ashburn, VA'
p36
sI37
S'Vienna, Austria'
p37
sI38
S'Zurich, Switzerland'
p38
sI39
S'Prague, CzechRepublic'
p39
sI40
S'Karlsruhe, Germany'
p40
sI41
S'Munich, Germany'
p41
sI42
S'Mannheim, Germany'
p42
sI43
S'Brussels, Belgium'
p43
sI44
S'Hamburg, Germany'
p44
sg18
I18
sI8
S'New York, NY'
p45
sg20
I20
sg26
I26
sg28
I28
sg31
I31
sg37
I37
sg36
I36
sg5
I4
sg12
I12
sg16
I16
sg17
I17
sg21
I21
sg22
I22
sg30
I30
sg32
I32
sg33
I33
sg38
I38
sg43
I43
sg1
I0
sg3
I2
sg8
I7
sg10
I10
sg13
I13
sg15
I15
sg7
I6
sg19
I19
sg24
I24
sg25
I25
sg23
I23
sg29
I29
sg35
I35
sg39
I39
sg42
I42
sg6
I5
sg45
I8
sg11
I11
sg14
I14
sg2
I1
sg27
I27
sg34
I34
sg9
I9
sg40
I40
sg41
I41
sg44
I44
s.(dp0
I34
(lp1
I1
aI16631
asI35
(lp2
I3561
aI1299
aI702
asI38
(lp3
I1299
asI8
(lp4
I4323
aI701
asI12
(lp5
I3561
aI1299
asI15
(lp6
I4323
asI20
(lp7
I1
aI7911
aI16631
aI6395
asI24
(lp8
I1
aI2914
aI209
asI29
(lp9
I3561
aI1299
aI3549
asI31
(lp10
I1239
aI5400
aI3549
aI702
as.