(dp0
I3
(dp1
I47
I1
ssI4
(dp2
I35
I1
sI22
I1
ssI7
(dp3
I56
I1
sI35
I1
sI20
I1
ssI9
(dp4
I88
I1
sI104
I1
sI47
I1
sI63
I1
ssI13
(dp5
I80
I1
sI72
I1
sI27
I1
sI89
I1
ssI14
(dp6
I97
I1
sI39
I1
ssI16
(dp7
I82
I1
sI54
I1
ssI20
(dp8
I103
I1
sI63
I1
sI62
I1
sI7
I1
ssI21
(dp9
I89
I1
sI35
I1
sI108
I1
sI22
I1
ssI22
(dp10
I35
I1
sI4
I1
sI101
I1
sI75
I1
sI21
I1
sI63
I1
ssI24
(dp11
I80
I1
sI73
I1
sI66
I1
sI75
I1
sI89
I1
ssI25
(dp12
I89
I1
sI44
I1
ssI27
(dp13
I76
I1
sI13
I1
ssI28
(dp14
I68
I1
sI54
I1
sI70
I1
sI39
I1
ssI29
(dp15
I66
I1
ssI32
(dp16
I71
I1
ssI33
(dp17
I67
I1
sI70
I1
sI71
I1
sI73
I1
sI49
I1
sI35
I1
sI54
I1
sI60
I1
sI62
I1
sI63
I1
ssI34
(dp18
I89
I1
sI83
I1
ssI35
(dp19
I33
I1
sI4
I1
sI65
I1
sI7
I1
sI109
I1
sI21
I1
sI22
I1
sI91
I1
ssI39
(dp20
I68
I1
sI70
I1
sI14
I1
sI113
I1
sI114
I1
sI54
I1
sI28
I1
sI94
I1
ssI43
(dp21
I75
I1
ssI44
(dp22
I89
I1
sI25
I1
ssI47
(dp23
I88
I1
sI9
I1
sI3
I1
ssI49
(dp24
I33
I1
sI63
I1
ssI54
(dp25
I33
I1
sI39
I1
sI108
I1
sI16
I1
sI82
I1
sI28
I1
sI94
I1
ssI55
(dp26
I108
I1
ssI56
(dp27
I101
I1
sI7
I1
ssI57
(dp28
I75
I1
ssI60
(dp29
I33
I1
ssI61
(dp30
I83
I1
ssI62
(dp31
I97
I1
sI20
I1
sI77
I1
sI33
I1
ssI63
(dp32
I33
I1
sI98
I1
sI9
I1
sI108
I1
sI49
I1
sI20
I1
sI22
I1
ssI65
(dp33
I89
I1
sI35
I1
ssI66
(dp34
I24
I1
sI89
I1
sI29
I1
ssI67
(dp35
I73
I1
sI33
I1
ssI68
(dp36
I28
I1
sI70
I1
sI39
I1
ssI69
(dp37
I108
I1
ssI70
(dp38
I97
I1
sI68
I1
sI33
I1
sI73
I1
sI106
I1
sI71
I1
sI108
I1
sI114
I1
sI82
I1
sI39
I1
sI28
I1
sI94
I1
ssI71
(dp39
I96
I1
sI73
I1
sI32
I1
sI70
I1
sI33
I1
ssI72
(dp40
I80
I1
sI13
I1
ssI73
(dp41
I97
I1
sI67
I1
sI33
I1
sI70
I1
sI71
I1
sI24
I1
ssI75
(dp42
I24
I1
sI57
I1
sI43
I1
sI22
I1
sI87
I1
ssI76
(dp43
I80
I1
sI27
I1
ssI77
(dp44
I97
I1
sI62
I1
ssI78
(dp45
I85
I1
ssI80
(dp46
I72
I1
sI24
I1
sI76
I1
sI13
I1
ssI82
(dp47
I16
I1
sI100
I1
sI54
I1
sI70
I1
ssI83
(dp48
I34
I1
sI108
I1
sI61
I1
sI102
I1
ssI84
(dp49
I108
I1
ssI85
(dp50
I89
I1
sI108
I1
sI78
I1
ssI87
(dp51
I75
I1
ssI88
(dp52
I9
I1
sI108
I1
sI47
I1
ssI89
(dp53
I65
I1
sI34
I1
sI66
I1
sI44
I1
sI108
I1
sI13
I1
sI21
I1
sI24
I1
sI25
I1
sI85
I1
ssI90
(dp54
I108
I1
ssI91
(dp55
I35
I1
ssI94
(dp56
I54
I1
sI70
I1
sI39
I1
ssI96
(dp57
I71
I1
ssI97
(dp58
I73
I1
sI14
I1
sI70
I1
sI77
I1
sI62
I1
ssI98
(dp59
I63
I1
ssI100
(dp60
I82
I1
ssI101
(dp61
I56
I1
sI22
I1
ssI102
(dp62
I83
I1
ssI103
(dp63
I20
I1
ssI104
(dp64
I9
I1
ssI106
(dp65
I107
I1
sI108
I1
sI70
I1
ssI107
(dp66
I106
I1
ssI108
(dp67
I69
I1
sI70
I1
sI106
I1
sI83
I1
sI84
I1
sI21
I1
sI54
I1
sI55
I1
sI88
I1
sI89
I1
sI90
I1
sI85
I1
sI63
I1
ssI109
(dp68
I35
I1
ssI113
(dp69
I39
I1
ssI114
(dp70
I70
I1
sI39
I1
ss.(dp0
I0
S'Vancouver, Canada'
p1
sI1
S'Milwaukee, WI'
p2
sg1
I0
sI3
S'Sioux Falls, SD'
p3
sI4
S'Alexandria, VA'
p4
sg2
I1
sI6
S'Washington, DC'
p5
sI7
S'Atlanta, GA'
p6
sI8
S'Hayward, CA'
p7
sI9
S'Kansas City, MO'
p8
sI10
S'Kassel, Germany'
p9
sI11
S'Meschede, Germany'
p10
sI12
S'Reston, VA'
p11
sI2
S'Montreal, Canada'
p12
sI14
S'Taipei, Taiwan'
p13
sI15
S'Duisburg, Germany'
p14
sg12
I2
sI17
S'Orange County, CA'
p15
sI18
S'Vienna, Austria'
p16
sI19
S'Santa Clara, CA'
p17
sI20
S'Houston, TX'
p18
sI21
S'Ashburn, VA'
p19
sI22
S'Sterling, VA'
p20
sI23
S'Relay, MD'
p21
sg3
I3
sI25
S'Westbury, NY'
p22
sI26
S'Everett, WA'
p23
sI27
S'Paris, France'
p24
sI28
S'Singapore'
p25
sI29
S'Syracuse, NY'
p26
sI30
S'Bonn, Germany'
p27
sI5
S'Offenburg, Germany'
p28
sI32
S'San Ramon, CA'
p29
sI33
S'Palo Alto, CA'
p30
sI34
S'Boston, MA'
p31
sI35
S'McLean, VA'
p32
sg4
I4
sg28
I5
sI38
S'Mainz, Germany'
p33
sI39
S'Tokyo, Japan'
p34
sI40
S'Geneva, Switzerland'
p35
sI41
S'Norfolk, VA'
p36
sI42
S'Zurich, Switzerland'
p37
sI43
S'State College, PA'
p38
sI44
S'Smithtown, NY'
p39
sI45
S'Dusseldorf, Germany'
p40
sI46
S'Hanover, Germany'
p41
sI47
S'Omaha, NE'
p42
sI48
S'Ulm, Germany'
p43
sI49
S'Orem, UT'
p44
sI50
S'Krefeld, Germany'
p45
sg5
I6
sI52
S'Sunnyvale, CA'
p46
sI53
S'Detroit, MI'
p47
sg6
I7
sI55
S'Champaign, IL'
p48
sI56
S'Boca Raton, FL'
p49
sI57
S'Mainesburg, PA'
p50
sI58
S'Cologne, Germany'
p51
sI59
S'Dortmund, Germany'
p52
sI60
S'Sacramento, CA'
p53
sI61
S'Burlington, MI'
p54
sI62
S'San Diego, CA'
p55
sg7
I8
sI64
S'Burbank, CA'
p56
sI65
S'Pittsburgh, PA'
p57
sI66
S'Rochester, NY'
p58
sI67
S'Mountain View, CA'
p59
sI68
S'Hong Kong'
p60
sI69
S'Peoria, IL'
p61
sI70
S'San Jose, CA'
p62
sI71
S'San Francisco, CA'
p63
sI72
S'Madrid, Spain'
p64
sg8
I9
sI74
S'Toronto, Canada'
p65
sI75
S'Philadelphia, PA'
p66
sI76
S'Frankfurt, Germany'
p67
sI77
S'Irvine, CA'
p68
sI78
S'Columbus, OH'
p69
sI13
S'London, UnitedKingdom'
p70
sI80
S'Amsterdam, Netherlands'
p71
sI81
S'Prague, CzechRepublic'
p72
sI82
S'Portland, OR'
p73
sg9
I10
sI84
S'Ann Arbor, MI'
p74
sS'Stuttgart, Germany'
p75
I51
sI86
S'Berlin, Germany'
p76
sI87
S'Princeton, NJ'
p77
sI88
S'St Louis, MO'
p78
sS'Herndon, VA'
p79
I79
sI90
S'Downers Grove, IL'
p80
sg70
I13
sI92
S'Aachen, Germany'
p81
sI93
S'Erfurt, Germany'
p82
sg13
I14
sI95
S'Konstanz, Germany'
p83
sI96
S'Oakland, CA'
p84
sI16
S'Spokane, WA'
p85
sI98
S'Austin, TX'
p86
sg36
I41
sg85
I16
sI101
S'Miami, FL'
p87
sI102
S'Livonia, MI'
p88
sI103
S'New Orleans, LA'
p89
sI104
S'Topeka, KS'
p90
sg15
I17
sI106
S'Denver, CO'
p91
sI107
S'Englewood, CO'
p92
sI108
S'Chicago, IL'
p93
sg16
I18
sI110
S'Karlsruhe, Germany'
p94
sI111
S'Munich, Germany'
p95
sI112
S'Braunschweig, Germany'
p96
sg17
I19
sI114
S'Sydney, Australia'
p97
sI89
S'New York, NY'
p98
sI105
S'Leipzig, Germany'
p99
sg18
I20
sg19
I21
sg20
I22
sg21
I23
sI109
S'Vienna, VA'
p100
sS'Newark, NJ'
p101
I24
sI24
g101
sg22
I25
sg23
I26
sg24
I27
sg25
I28
sg26
I29
sg27
I30
sI91
S'Baltimore, MD'
p102
sS'Bielefeld, Germany'
p103
I31
sg29
I32
sg30
I33
sg31
I34
sg32
I35
sS'Anaheim, CA'
p104
I36
sg33
I38
sI36
g104
sg34
I39
sg35
I40
sI37
S'Mannheim, Germany'
p105
sg38
I43
sg39
I44
sg40
I45
sg41
I46
sg42
I47
sg37
I42
sI99
S'Tacoma, WA'
p106
sI113
S'Seoul, SouthKorea'
p107
sg44
I49
sg45
I50
sg46
I52
sg47
I53
sS'Seattle, WA'
p108
I54
sI94
S'Osaka, Japan'
p109
sg10
I11
sg49
I56
sg56
I64
sg51
I58
sg52
I59
sg99
I105
sg53
I60
sg54
I61
sg55
I62
sS'Dallas, TX'
p110
I63
sg50
I57
sg57
I65
sI51
g75
sg59
I67
sg60
I68
sg84
I96
sI54
g108
sg62
I70
sg63
I71
sg64
I72
sS'Milpitas, CA'
p111
I73
sg65
I74
sg66
I75
sg67
I76
sg98
I89
sg77
I87
sg69
I78
sg11
I12
sI97
S'Los Angeles, CA'
p112
sg71
I80
sg72
I81
sg73
I82
sg109
I94
sg58
I66
sg105
I37
sI63
g110
sg74
I84
sS'Cleveland, OH'
p113
I85
sg76
I86
sg68
I77
sg78
I88
sS'Springfield, MI'
p114
I83
sg43
I48
sg102
I91
sg61
I69
sg81
I92
sg80
I90
sI31
g103
sg82
I93
sI73
g111
sg83
I95
sg14
I15
sg112
I97
sg86
I98
sI100
S'Eugene, OR'
p115
sg106
I99
sg115
I100
sg87
I101
sg88
I102
sg89
I103
sg90
I104
sI79
g79
sg91
I106
sg92
I107
sg93
I108
sg100
I109
sI83
g114
sg94
I110
sg48
I55
sg95
I111
sg97
I114
sg96
I112
sg107
I113
sI85
g113
s.(dp0
I1
(lp1
I21
aI108
aI63
aI97
aI89
aI33
aI54
asI5511
(lp2
I21
aI33
asI7176
(lp3
I39
asI6539
(lp4
I108
aI89
aI54
asI2828
(lp5
I108
aI35
aI70
asI11537
(lp6
sI5650
(lp7
I108
aI35
aI33
asI4755
(lp8
sI5400
(lp9
I108
aI13
aI35
aI70
aI28
asI6939
(lp10
I108
aI35
aI89
aI33
asI8220
(lp11
I76
asI4637
(lp12
I21
aI33
asI10910
(lp13
I7
aI34
aI108
aI63
aI106
aI20
aI97
aI101
aI73
aI89
aI33
aI75
aI62
aI71
aI54
aI39
asI4513
(lp14
I108
asI5669
(lp15
sI3356
(lp16
I108
aI63
aI76
aI13
aI97
aI89
aI70
asI174
(lp17
I34
aI108
aI63
aI70
asI6453
(lp18
I21
aI108
aI97
aI33
aI54
asI3257
(lp19
I70
asI15290
(lp20
sI701
(lp21
I108
aI63
aI54
aI88
asI4544
(lp22
sI2497
(lp23
I89
aI33
asI6467
(lp24
I70
asI1221
(lp25
I33
asI7543
(lp26
sI209
(lp27
I108
aI63
aI101
aI24
aI33
asI852
(lp28
sI4565
(lp29
I108
asI1239
(lp30
I80
aI21
aI108
aI63
aI9
aI13
aI97
aI101
aI89
aI70
aI54
asI11608
(lp31
I54
asI7132
(lp32
sI3549
(lp33
I80
aI21
aI108
aI13
aI33
aI54
asI4323
(lp34
I108
aI33
asI3300
(lp35
I70
asI101
(lp36
I54
asI7911
(lp37
I108
aI89
asI3561
(lp38
I63
aI89
aI33
aI54
asI7018
(lp39
I108
aI63
aI97
aI35
aI54
asI12050
(lp40
I108
aI33
asI6461
(lp41
I108
aI63
aI89
aI33
aI54
asI1299
(lp42
I63
aI76
aI13
aI89
aI27
asI2548
(lp43
I108
aI22
asI16631
(lp44
I108
aI97
aI101
aI33
aI71
asI1784
(lp45
I33
asI6395
(lp46
I108
asI3320
(lp47
I89
aI22
as.