(dp0
I2
(dp1
I49
I1
ssI4
(dp2
I64
I1
sI24
I1
sI42
I1
ssI5
(dp3
I56
I1
sI74
I1
sI36
I1
sI13
I1
ssI7
(dp4
I32
I1
sI41
I1
sI74
I1
sI78
I1
sI16
I1
sI54
I1
sI10
I1
sI62
I1
sI31
I1
ssI10
(dp5
I32
I1
sI64
I1
sI65
I1
sI74
I1
sI7
I1
sI15
I1
sI16
I1
sI17
I1
ssI11
(dp6
I64
I1
sI42
I1
ssI12
(dp7
I64
I1
ssI13
(dp8
I66
I1
sI52
I1
sI5
I1
ssI15
(dp9
I64
I1
sI16
I1
sI10
I1
sI47
I1
ssI16
(dp10
I38
I1
sI7
I1
sI42
I1
sI15
I1
sI25
I1
sI27
I1
sI10
I1
sI62
I1
ssI17
(dp11
I64
I1
sI10
I1
sI38
I1
ssI21
(dp12
I34
I1
ssI22
(dp13
I23
I1
ssI23
(dp14
I27
I1
sI41
I1
sI35
I1
sI22
I1
sI24
I1
ssI24
(dp15
I41
I1
sI75
I1
sI4
I1
sI23
I1
ssI25
(dp16
I32
I1
sI64
I1
sI37
I1
sI48
I1
sI42
I1
sI77
I1
sI16
I1
sI49
I1
sI30
I1
ssI26
(dp17
I52
I1
sI29
I1
ssI27
(dp18
I64
I1
sI41
I1
sI76
I1
sI16
I1
sI50
I1
sI23
I1
ssI28
(dp19
I49
I1
ssI29
(dp20
I56
I1
sI26
I1
sI52
I1
ssI30
(dp21
I25
I1
sI75
I1
ssI31
(dp22
I7
I1
ssI32
(dp23
I64
I1
sI25
I1
sI10
I1
sI77
I1
sI7
I1
ssI33
(dp24
I56
I1
sI66
I1
ssI34
(dp25
I41
I1
sI21
I1
ssI35
(dp26
I23
I1
ssI36
(dp27
I5
I1
ssI37
(dp28
I49
I1
sI25
I1
ssI38
(dp29
I64
I1
sI17
I1
sI16
I1
ssI39
(dp30
I41
I1
ssI41
(dp31
I64
I1
sI34
I1
sI7
I1
sI39
I1
sI49
I1
sI23
I1
sI24
I1
sI27
I1
ssI42
(dp32
I64
I1
sI25
I1
sI11
I1
sI4
I1
sI16
I1
ssI43
(dp33
I77
I1
ssI47
(dp34
I15
I1
ssI48
(dp35
I25
I1
ssI49
(dp36
I2
I1
sI37
I1
sI41
I1
sI76
I1
sI25
I1
sI28
I1
sI61
I1
ssI50
(dp37
I27
I1
ssI52
(dp38
I26
I1
sI13
I1
sI29
I1
ssI54
(dp39
I7
I1
ssI55
(dp40
I56
I1
ssI56
(dp41
I33
I1
sI29
I1
sI5
I1
sI62
I1
sI55
I1
ssI61
(dp42
I49
I1
ssI62
(dp43
I56
I1
sI16
I1
sI74
I1
sI7
I1
ssI64
(dp44
I32
I1
sI11
I1
sI4
I1
sI38
I1
sI73
I1
sI42
I1
sI75
I1
sI12
I1
sI15
I1
sI17
I1
sI41
I1
sI25
I1
sI27
I1
sI10
I1
ssI65
(dp45
I10
I1
ssI66
(dp46
I33
I1
sI13
I1
ssI73
(dp47
I64
I1
ssI74
(dp48
I10
I1
sI5
I1
sI62
I1
sI7
I1
ssI75
(dp49
I64
I1
sI24
I1
sI30
I1
ssI76
(dp50
I49
I1
sI27
I1
ssI77
(dp51
I32
I1
sI25
I1
sI43
I1
ssI78
(dp52
I7
I1
ss.(dp0
I0
S'Carrollton, TX'
p1
sI1
S'Sunnyvale, CA'
p2
sI2
S'Tucson, AZ'
p3
sI3
S'Milwaukee, WI'
p4
sI4
S'Seattle, WA'
p5
sg4
I3
sI6
S'Berlin, Germany'
p6
sI7
S'Relay, MD'
p7
sI8
S'Newark, NJ'
p8
sI9
S'St Louis, MO'
p9
sI10
S'New York, NY'
p10
sI11
S'Lees Summit, MO'
p11
sI12
S'Saint Louis, MO'
p12
sI13
S'Hamburg, Germany'
p13
sI14
S'Oslo, Norway'
p14
sI15
S'Springfield, MA'
p15
sI16
S'Pennsauken, NJ'
p16
sI17
S'Indianapolis, IN'
p17
sI18
S'Cambridge, MA'
p18
sI19
S'Minneapolis, MN'
p19
sI20
S'Tampa, FL'
p20
sI21
S'Auckland, NewZealand'
p21
sI22
S'Singapore'
p22
sI23
S'Tokyo, Japan'
p23
sI24
S'Tacoma, WA'
p24
sI25
S'Dallas, TX'
p25
sI26
S'Milan, Italy'
p26
sI27
S'Stockton, CA'
p27
sI28
S'Burbank, CA'
p28
sI29
S'Paris, France'
p29
sI30
S'Denver, Colorado'
p30
sI5
S'Copenhagen, Denmark'
p31
sI32
S'Atlanta, GA'
p32
sI33
S'Brussels, Belgium'
p33
sI34
S'Sydney, Australia'
p34
sI35
S'Hong Kong'
p35
sI36
S'Stockholm, Sweden'
p36
sI37
S'Los Angeles, CA'
p37
sI38
S'Roachdale, IN'
p38
sI39
S'Palo Alto, CA'
p39
sI40
S'Budapest, Hungary'
p40
sI41
S'San Jose, CA'
p41
sI42
S'Kansas City, MO'
p42
sI43
S'Miami, FL'
p43
sI44
S'San Francisco, CA'
p44
sI45
S'Oak Brook, IL'
p45
sI46
S'Moscow, Russia'
p46
sI47
S'Boston, MA'
p47
sI48
S'Richardson, TX'
p48
sI49
S'Anaheim, CA'
p49
sI50
S'Rancho Cordova, CA'
p50
sS'Washington, DC'
p51
I31
sI52
S'Frankfurt, Germany'
p52
sI53
S'Baltimore, MD'
p53
sg32
I32
sI55
S'Dublin, Ireland'
p54
sI56
S'London, UnitedKingdom'
p55
sI57
S'Geneva, Switzerland'
p56
sI58
S'Antwerp, Netherlands'
p57
sI59
S'Zurich, Switzerland'
p58
sI60
S'Denver, CO'
p59
sI61
S'Phoenix, AZ'
p60
sI62
S'Tuckerton, NJ'
p61
sg38
I38
sI64
S'Chicago, IL'
p62
sI65
S'Hartford, CT'
p63
sI66
S'Amsterdam, Netherlands'
p64
sI67
S'Sacramento, CA'
p65
sI68
S'Vienna, Austria'
p66
sI69
S'Amstelveen, Netherlands'
p67
sI70
S'Basel, Switzerland'
p68
sI71
S'Prague, CzechRepublic'
p69
sI72
S'Santa Clara, CA'
p70
sg42
I42
sI74
S'Manasquan, NJ'
p71
sI75
S'Cheyenne, WY'
p72
sI76
S'Pearl Harbor, HI'
p73
sI77
S'Orlando, FL'
p74
sI78
S'Ashburn, VA'
p75
sg48
I48
sg67
I69
sI54
S'Reston, VA'
p76
sg66
I68
sg70
I72
sg71
I74
sg75
I78
sg31
I5
sg7
I7
sg8
I8
sg12
I12
sg29
I29
sg22
I22
sg26
I26
sg27
I27
sg68
I70
sI31
g51
sg36
I36
sg39
I39
sg47
I47
sg49
I49
sg72
I75
sg23
I23
sg56
I57
sg50
I50
sS'Dusseldorf, Germany'
p77
I63
sg58
I59
sg33
I33
sg55
I56
sg1
I0
sg2
I1
sg5
I4
sg11
I11
sg16
I16
sg17
I17
sg65
I67
sg21
I21
sg25
I25
sg28
I28
sg30
I30
sI51
S'Barcelona, Spain'
p78
sg35
I35
sg40
I40
sg41
I41
sg44
I44
sg45
I45
sg46
I46
sg52
I52
sg60
I61
sg76
I54
sg63
I65
sg64
I66
sg69
I71
sg54
I55
sI63
g77
sS'Cleveland, OH'
p79
I73
sg73
I76
sg3
I2
sg6
I6
sg9
I9
sg10
I10
sg14
I14
sg15
I15
sg53
I53
sg18
I18
sg19
I19
sg20
I20
sI73
g79
sg37
I37
sg24
I24
sg43
I43
sg78
I51
sg59
I60
sg61
I62
sg62
I64
sg57
I58
sg13
I13
sg74
I77
sg34
I34
s.(dp0
I1
(lp1
I78
aI32
aI64
aI73
aI17
aI37
aI10
aI7
aI41
aI4
aI24
asI1668
(lp2
I78
aI32
aI64
aI37
asI5511
(lp3
I43
aI10
aI39
aI29
asI7176
(lp4
sI2828
(lp5
I10
aI39
aI31
asI11537
(lp6
sI5650
(lp7
I64
aI27
asI4755
(lp8
I16
aI27
asI5400
(lp9
I66
asI8220
(lp10
I29
asI4637
(lp11
I49
aI78
aI25
aI7
aI41
asI10910
(lp12
I49
aI32
aI75
aI64
aI25
aI10
aI77
aI16
aI41
aI4
aI24
asI4513
(lp13
I10
aI41
asI4006
(lp14
sI3356
(lp15
I66
aI64
aI25
aI56
aI37
aI10
aI41
aI4
asI174
(lp16
I64
aI56
asI6453
(lp17
I49
aI25
aI10
aI24
asI3257
(lp18
I56
asI6461
(lp19
I56
aI10
aI7
aI41
asI702
(lp20
I66
aI56
asI3701
(lp21
I27
asI577
(lp22
I64
aI10
aI4
asI6467
(lp23
I32
aI25
asI1221
(lp24
I41
asI7543
(lp25
I41
asI209
(lp26
I32
aI28
aI75
aI64
aI25
aI60
aI8
aI4
aI24
asI852
(lp27
I64
aI4
asI4565
(lp28
I7
asI9942
(lp29
sI11608
(lp30
I24
asI7132
(lp31
I25
aI42
aI10
asI3549
(lp32
I64
aI5
aI52
aI56
aI37
aI10
aI38
asI3602
(lp33
I64
aI10
aI16
aI4
asI2914
(lp34
I66
aI78
aI64
aI25
aI42
aI56
aI37
aI43
aI10
aI41
aI4
asI4323
(lp35
I49
aI32
aI64
aI25
aI3
aI10
aI2
asI3300
(lp36
I66
asI7911
(lp37
I25
aI7
aI41
asI3561
(lp38
I66
aI49
aI32
aI64
aI25
aI52
aI42
aI56
aI10
aI7
aI38
aI4
asI7018
(lp39
I32
aI53
aI75
aI64
aI25
aI65
aI37
aI10
aI61
aI7
aI4
aI9
aI27
aI31
asI6509
(lp40
sI701
(lp41
I49
aI32
aI75
aI64
aI73
aI60
aI65
aI17
aI37
aI19
aI10
aI61
aI38
aI67
aI12
aI4
aI27
aI31
asI2497
(lp42
I41
asI1299
(lp43
I10
aI36
asI2548
(lp44
I78
aI64
aI25
aI10
asI4725
(lp45
I23
asI16631
(lp46
I10
asI3320
(lp47
I13
aI10
aI7
asI1785
(lp48
I32
aI10
aI41
asI6395
(lp49
I49
aI64
aI7
as.