(dp0
I2
(dp1
I3
I1
sI9
I1
sI13
I1
sI14
I1
sI15
I1
sI20
I1
sI21
I1
sI26
I1
sI37
I1
sI38
I1
sI44
I1
sI45
I1
sI46
I1
sI47
I1
sI52
I1
sI53
I1
sI54
I1
sI55
I1
sI56
I1
sI57
I1
sI62
I1
sI67
I1
sI68
I1
sI69
I1
sI72
I1
sI73
I1
sI74
I1
sI76
I1
sI77
I1
sI78
I1
sI79
I1
sI80
I1
sI84
I1
sI86
I1
sI89
I1
sI92
I1
sI93
I1
sI98
I1
ssI3
(dp2
I2
I1
sI68
I1
sI69
I1
sI38
I1
sI72
I1
sI73
I1
sI45
I1
sI46
I1
sI84
I1
sI57
I1
sI92
I1
sI93
I1
sI52
I1
ssI4
(dp3
I92
I1
ssI9
(dp4
I96
I1
sI33
I1
sI34
I1
sI99
I1
sI38
I1
sI70
I1
sI72
I1
sI2
I1
sI20
I1
sI21
I1
sI54
I1
sI56
I1
sI60
I1
sI93
I1
sI30
I1
ssI13
(dp5
I2
I1
sI38
I1
sI72
I1
sI46
I1
sI15
I1
sI84
I1
sI85
I1
sI52
I1
sI90
I1
sI92
I1
sI93
I1
ssI14
(dp6
I2
I1
ssI15
(dp7
I2
I1
sI38
I1
sI72
I1
sI13
I1
sI46
I1
sI52
I1
sI84
I1
sI93
I1
ssI16
(dp8
I26
I1
ssI17
(dp9
I72
I1
ssI18
(dp10
I26
I1
ssI20
(dp11
I56
I1
sI9
I1
sI2
I1
sI60
I1
sI72
I1
ssI21
(dp12
I9
I1
sI2
I1
ssI24
(dp13
I56
I1
ssI25
(dp14
I52
I1
ssI26
(dp15
I2
I1
sI69
I1
sI38
I1
sI72
I1
sI46
I1
sI16
I1
sI18
I1
sI51
I1
sI84
I1
sI52
I1
sI92
I1
sI93
I1
ssI30
(dp16
I56
I1
sI9
I1
sI70
I1
ssI33
(dp17
I56
I1
sI9
I1
sI72
I1
ssI34
(dp18
I56
I1
sI9
I1
sI60
I1
ssI37
(dp19
I2
I1
sI69
I1
sI38
I1
sI72
I1
sI46
I1
sI52
I1
sI84
I1
sI93
I1
ssI38
(dp20
I2
I1
sI3
I1
sI9
I1
sI13
I1
sI15
I1
sI26
I1
sI37
I1
sI44
I1
sI45
I1
sI46
I1
sI47
I1
sI52
I1
sI53
I1
sI55
I1
sI57
I1
sI62
I1
sI64
I1
sI67
I1
sI68
I1
sI69
I1
sI72
I1
sI73
I1
sI74
I1
sI76
I1
sI77
I1
sI78
I1
sI79
I1
sI80
I1
sI84
I1
sI86
I1
sI89
I1
sI92
I1
sI93
I1
sI98
I1
ssI39
(dp21
I84
I1
ssI42
(dp22
I62
I1
ssI44
(dp23
I2
I1
sI38
I1
sI72
I1
sI46
I1
sI52
I1
sI84
I1
sI93
I1
ssI45
(dp24
I2
I1
sI3
I1
sI38
I1
sI72
I1
sI46
I1
sI84
I1
sI52
I1
sI92
I1
sI93
I1
ssI46
(dp25
I2
I1
sI3
I1
sI13
I1
sI15
I1
sI26
I1
sI37
I1
sI38
I1
sI44
I1
sI45
I1
sI47
I1
sI52
I1
sI53
I1
sI55
I1
sI57
I1
sI62
I1
sI67
I1
sI68
I1
sI69
I1
sI72
I1
sI73
I1
sI74
I1
sI76
I1
sI77
I1
sI78
I1
sI79
I1
sI80
I1
sI84
I1
sI86
I1
sI88
I1
sI89
I1
sI92
I1
sI93
I1
sI98
I1
ssI47
(dp26
I2
I1
sI38
I1
sI72
I1
sI46
I1
sI84
I1
sI52
I1
sI92
I1
sI93
I1
ssI48
(dp27
I74
I1
ssI51
(dp28
I26
I1
ssI52
(dp29
I2
I1
sI3
I1
sI13
I1
sI15
I1
sI25
I1
sI26
I1
sI37
I1
sI38
I1
sI44
I1
sI45
I1
sI46
I1
sI47
I1
sI53
I1
sI55
I1
sI57
I1
sI62
I1
sI67
I1
sI68
I1
sI69
I1
sI72
I1
sI73
I1
sI74
I1
sI76
I1
sI77
I1
sI78
I1
sI79
I1
sI80
I1
sI84
I1
sI86
I1
sI88
I1
sI89
I1
sI92
I1
sI93
I1
sI98
I1
ssI53
(dp30
I2
I1
sI38
I1
sI72
I1
sI46
I1
sI52
I1
sI92
I1
sI93
I1
ssI54
(dp31
I56
I1
sI9
I1
sI2
I1
sI72
I1
ssI55
(dp32
I2
I1
sI38
I1
sI71
I1
sI72
I1
sI46
I1
sI84
I1
sI86
I1
sI52
I1
sI92
I1
sI93
I1
ssI56
(dp33
I96
I1
sI33
I1
sI34
I1
sI99
I1
sI70
I1
sI72
I1
sI9
I1
sI2
I1
sI20
I1
sI54
I1
sI24
I1
sI60
I1
sI30
I1
ssI57
(dp34
I2
I1
sI3
I1
sI38
I1
sI72
I1
sI46
I1
sI84
I1
sI52
I1
sI92
I1
sI93
I1
ssI60
(dp35
I56
I1
sI9
I1
sI34
I1
sI20
I1
ssI62
(dp36
I2
I1
sI69
I1
sI38
I1
sI72
I1
sI42
I1
sI46
I1
sI84
I1
sI52
I1
sI93
I1
ssI64
(dp37
I38
I1
ssI67
(dp38
I2
I1
sI38
I1
sI72
I1
sI46
I1
sI52
I1
sI84
I1
sI93
I1
ssI68
(dp39
I2
I1
sI3
I1
sI38
I1
sI72
I1
sI46
I1
sI52
I1
sI84
I1
ssI69
(dp40
I2
I1
sI3
I1
sI37
I1
sI38
I1
sI72
I1
sI76
I1
sI77
I1
sI46
I1
sI84
I1
sI78
I1
sI88
I1
sI89
I1
sI26
I1
sI93
I1
sI62
I1
sI52
I1
ssI70
(dp41
I56
I1
sI9
I1
sI30
I1
ssI71
(dp42
I55
I1
ssI72
(dp43
I2
I1
sI3
I1
sI9
I1
sI13
I1
sI15
I1
sI17
I1
sI20
I1
sI26
I1
sI33
I1
sI37
I1
sI38
I1
sI44
I1
sI45
I1
sI46
I1
sI47
I1
sI52
I1
sI53
I1
sI54
I1
sI55
I1
sI56
I1
sI57
I1
sI62
I1
sI67
I1
sI68
I1
sI69
I1
sI73
I1
sI74
I1
sI76
I1
sI77
I1
sI78
I1
sI79
I1
sI80
I1
sI81
I1
sI84
I1
sI86
I1
sI89
I1
sI92
I1
sI93
I1
sI98
I1
ssI73
(dp44
I2
I1
sI3
I1
sI38
I1
sI72
I1
sI46
I1
sI84
I1
sI88
I1
sI52
I1
sI92
I1
sI93
I1
ssI74
(dp45
I2
I1
sI38
I1
sI72
I1
sI46
I1
sI48
I1
sI84
I1
sI52
I1
sI93
I1
ssI75
(dp46
I93
I1
ssI76
(dp47
I2
I1
sI69
I1
sI38
I1
sI72
I1
sI46
I1
sI52
I1
sI84
I1
sI93
I1
ssI77
(dp48
I2
I1
sI69
I1
sI38
I1
sI72
I1
sI46
I1
sI52
I1
sI84
I1
sI93
I1
ssI78
(dp49
I2
I1
sI69
I1
sI38
I1
sI72
I1
sI46
I1
sI52
I1
sI84
I1
sI93
I1
ssI79
(dp50
I2
I1
sI38
I1
sI72
I1
sI46
I1
sI84
I1
sI52
I1
sI92
I1
sI93
I1
ssI80
(dp51
I2
I1
sI38
I1
sI72
I1
sI46
I1
sI84
I1
sI52
I1
sI92
I1
sI93
I1
ssI81
(dp52
I72
I1
ssI84
(dp53
I2
I1
sI3
I1
sI13
I1
sI15
I1
sI26
I1
sI37
I1
sI38
I1
sI39
I1
sI44
I1
sI45
I1
sI46
I1
sI47
I1
sI52
I1
sI55
I1
sI57
I1
sI62
I1
sI67
I1
sI68
I1
sI69
I1
sI72
I1
sI73
I1
sI74
I1
sI76
I1
sI77
I1
sI78
I1
sI79
I1
sI80
I1
sI86
I1
sI88
I1
sI89
I1
sI92
I1
sI93
I1
sI98
I1
ssI85
(dp54
I13
I1
ssI86
(dp55
I2
I1
sI38
I1
sI72
I1
sI46
I1
sI52
I1
sI55
I1
sI84
I1
sI93
I1
ssI88
(dp56
I73
I1
sI84
I1
sI69
I1
sI46
I1
sI52
I1
ssI89
(dp57
I2
I1
sI69
I1
sI38
I1
sI72
I1
sI46
I1
sI84
I1
sI52
I1
sI92
I1
sI93
I1
ssI90
(dp58
I13
I1
ssI92
(dp59
I98
I1
sI3
I1
sI4
I1
sI38
I1
sI72
I1
sI73
I1
sI45
I1
sI13
I1
sI46
I1
sI79
I1
sI80
I1
sI84
I1
sI57
I1
sI55
I1
sI2
I1
sI89
I1
sI26
I1
sI47
I1
sI52
I1
sI93
I1
sI53
I1
ssI93
(dp60
I2
I1
sI3
I1
sI9
I1
sI13
I1
sI15
I1
sI26
I1
sI37
I1
sI38
I1
sI44
I1
sI45
I1
sI46
I1
sI47
I1
sI52
I1
sI53
I1
sI55
I1
sI57
I1
sI62
I1
sI67
I1
sI69
I1
sI72
I1
sI73
I1
sI74
I1
sI75
I1
sI76
I1
sI77
I1
sI78
I1
sI79
I1
sI80
I1
sI84
I1
sI86
I1
sI89
I1
sI92
I1
sI98
I1
ssI96
(dp61
I56
I1
sI9
I1
ssI98
(dp62
I2
I1
sI38
I1
sI72
I1
sI46
I1
sI84
I1
sI52
I1
sI92
I1
sI93
I1
ssI99
(dp63
I56
I1
sI9
I1
ss.(dp0
I0
S'Erfurt, Germany'
p1
sI1
S'Fremont, CA'
p2
sI2
S'Washington, DC'
p3
sI3
S'Atlanta, GA'
p4
sI4
S'Broomfield, CO'
p5
sI5
S'Munster, Germany'
p6
sI6
S'Kassel, Germany'
p7
sI7
S'Stuttgart, Germany'
p8
sI8
S'Herndon, VA'
p9
sI9
S'London, UnitedKingdom'
p10
sI10
S'Boise, ID'
p11
sI11
S'Vienna, Austria'
p12
sI12
S'Santa Clara, CA'
p13
sI13
S'Houston, TX'
p14
sI14
S'Ashburn, VA'
p15
sI15
S'San Antonio, TX'
p16
sI16
S'Manchester, MA'
p17
sI17
S'Newark, NJ'
p18
sI18
S'Manchester, UnitedKingdom'
p19
sI19
S'Everett, WA'
p20
sI20
S'Paris, France'
p21
sI21
S'Milan, Italy'
p22
sI22
S'Bonn, Germany'
p23
sI23
S'Bielefeld, Germany'
p24
sI24
S'Stockholm, Sweden'
p25
sI25
S'Palo Alto, CA'
p26
sI26
S'Boston, MA'
p27
sI27
S'Anaheim, CA'
p28
sI28
S'Lubeck, Germany'
p29
sI29
S'Tokyo, Japan'
p30
sI30
S'Dusseldorf, Germany'
p31
sI31
S'Hanover, Germany'
p32
sI32
S'Omaha, NE'
p33
sI33
S'Zurich, Switzerland'
p34
sI34
S'Brussels, Belgium'
p35
sI35
S'Ulm, Germany'
p36
sI36
S'Sunnyvale, CA'
p37
sI37
S'Detroit, MI'
p38
sI38
S'Seattle, WA'
p39
sI39
S'Honolulu, HI'
p40
sg2
I1
sI41
S'Cologne, Germany'
p41
sI42
S'Indianapolis, IN'
p42
sI43
S'Dortmund, Germany'
p43
sI44
S'Sacramento, CA'
p44
sI45
S'San Diego, CA'
p45
sI46
S'Dallas, TX'
p46
sI47
S'Tustin, CA'
p47
sI48
S'Pittsburgh, PA'
p48
sI49
S'Copenhagen, Denmark'
p49
sI50
S'Hong Kong'
p50
sg3
I2
sI52
S'San Jose, CA'
p51
sI53
S'San Francisco, CA'
p52
sg4
I3
sI55
S'Philadelphia, PA'
p53
sI56
S'Frankfurt, Germany'
p54
sg5
I4
sI58
S'Reston, VA'
p55
sg6
I5
sI60
S'Amsterdam, Netherlands'
p56
sI61
S'Strasburg, Germany'
p57
sI62
S'Cincinnati, OH'
p58
sI63
S'Prague, CzechRepublic'
p59
sI64
S'Portland, OR'
p60
sI65
S'Buffalo, NY'
p61
sI66
S'Mannheim, Germany'
p62
sI67
S'Cleveland, OH'
p63
sI68
S'Charlotte, NC'
p64
sI69
S'Raleigh, NC'
p65
sI70
S'Berlin, Germany'
p66
sI71
S'Princeton, NJ'
p67
sI72
S'New York, NY'
p68
sI73
S'Richmond, VA'
p69
sI74
S'Baltimore, MD'
p70
sI75
S'Minneapolis, MN'
p71
sI76
S'St. Louis, MO'
p72
sI77
S'Stamford, CT'
p73
sI78
S'Tampa, FL'
p74
sI79
S'Las Vegas, NV'
p75
sI80
S'Salt Lake City, UT'
p76
sI81
S'Garden City, NY'
p77
sI82
S'Konstanz, Germany'
p78
sg7
I6
sI84
S'Los Angeles, CA'
p79
sg8
I7
sI86
S'Weehawken, NJ'
p80
sI87
S'Tacoma, WA'
p81
sI88
S'Nashville, TN'
p82
sg55
I58
sI90
S'New Orleans, LA'
p83
sg10
I9
sI92
S'Denver, CO'
p84
sI93
S'Chicago, IL'
p85
sI94
S'Vienna, VA'
p86
sI95
S'Karlsruhe, Germany'
p87
sI96
S'Munich, Germany'
p88
sI97
S'Braunschweig, Germany'
p89
sI98
S'Orlando, FL'
p90
sI99
S'Hamburg, Germany'
p91
sg11
I10
sg12
I11
sg13
I12
sI89
S'Miami, FL'
p92
sg14
I13
sg15
I14
sg16
I15
sg17
I16
sg18
I17
sg26
I25
sg20
I19
sg21
I20
sg22
I21
sg23
I22
sI91
S'Leipzig, Germany'
p93
sI59
S'Wiesbaden, Germany'
p94
sg24
I23
sg25
I24
sg19
I18
sg27
I26
sg28
I27
sg29
I28
sg30
I29
sg31
I30
sg32
I31
sg33
I32
sg36
I35
sI40
S'Mainz, Germany'
p95
sg35
I34
sg37
I36
sg38
I37
sg39
I38
sg40
I39
sg95
I40
sg41
I41
sg42
I42
sg43
I43
sg93
I91
sg44
I44
sg45
I45
sg46
I46
sg47
I47
sg48
I48
sI51
S'Providence, RI'
p96
sg49
I49
sg50
I50
sg96
I51
sI54
S'Madrid, Spain'
p97
sg51
I52
sg52
I53
sg97
I54
sg53
I55
sg54
I56
sI57
S'Phoenix, AZ'
p98
sg98
I57
sg9
I8
sg94
I59
sg56
I60
sg57
I61
sg58
I62
sg59
I63
sg60
I64
sg61
I65
sg62
I66
sg63
I67
sg64
I68
sg65
I69
sg66
I70
sg67
I71
sg68
I72
sg34
I33
sg70
I74
sg69
I73
sg72
I76
sg73
I77
sg1
I0
sg75
I79
sg76
I80
sg77
I81
sg78
I82
sS'Duisburg, Germany'
p99
I83
sg79
I84
sS'Austin, TX'
p100
I85
sg80
I86
sg81
I87
sg82
I88
sg92
I89
sg71
I75
sg83
I90
sg74
I78
sg84
I92
sg85
I93
sg86
I94
sI83
g99
sg87
I95
sg88
I96
sg91
I99
sg89
I97
sg90
I98
sI85
g100
s.(dp0
I1
(lp1
I93
aI92
aI84
aI72
aI38
asI1668
(lp2
I3
aI93
aI46
aI56
aI9
aI72
aI2
asI5511
(lp3
I3
aI93
aI9
aI72
aI20
aI52
asI7176
(lp4
I56
asI2828
(lp5
I93
aI72
aI52
asI12050
(lp6
I3
aI26
aI93
aI46
aI84
aI89
aI52
asI1299
(lp7
I60
aI56
aI9
aI84
aI72
aI52
asI6939
(lp8
I52
aI2
asI8220
(lp9
I72
asI4637
(lp10
I46
aI84
aI52
aI2
asI10910
(lp11
I3
aI93
aI72
aI53
aI2
asI4513
(lp12
I9
aI2
asI5669
(lp13
I56
asI4006
(lp14
sI174
(lp15
I72
aI52
asI15412
(lp16
I72
aI53
asI6453
(lp17
I14
aI9
aI84
aI52
aI38
asI3257
(lp18
sI6461
(lp19
I60
aI93
aI56
aI9
aI72
aI2
asI702
(lp20
I9
asI4544
(lp21
sI2497
(lp22
I52
asI13129
(lp23
I56
asI7543
(lp24
I25
aI52
asI209
(lp25
I46
aI92
aI84
aI72
aI52
aI38
aI2
asI5650
(lp26
I52
asI4565
(lp27
I25
aI2
asI1239
(lp28
I60
aI93
aI46
aI9
aI84
aI72
aI52
aI38
asI11608
(lp29
I38
asI3549
(lp30
I60
aI46
aI56
aI9
aI84
aI72
aI25
asI2914
(lp31
I93
aI46
aI56
aI9
aI84
aI72
aI52
asI4323
(lp32
I68
asI3300
(lp33
I60
asI101
(lp34
I38
asI7911
(lp35
I72
aI52
aI2
asI3561
(lp36
I60
aI93
aI46
aI56
aI72
aI20
aI52
aI2
asI7018
(lp37
I93
aI46
aI84
aI72
aI52
aI38
aI2
asI4589
(lp38
I34
aI56
aI9
asI701
(lp39
I3
aI93
aI46
aI84
aI72
aI52
aI38
aI2
asI2548
(lp40
I46
aI72
asI4725
(lp41
I25
asI16631
(lp42
I84
aI2
asI3320
(lp43
I9
aI72
asI1785
(lp44
I72
asI6395
(lp45
I46
aI53
asI3967
(lp46
I52
as.